
/home/stanley/chipyard_1.13.0/chipyard/fpga/src/main/resources/vcu118/sdboot//build/sdboot.elf:     file format elf64-littleriscv


Disassembly of section .text:

0000000000010000 <_prog_start>:

  .section .text.init
  .option norvc
  .globl _prog_start
_prog_start:
  smp_pause(s1, s2)
   10000:	00800913          	li	s2,8
   10004:	30491073          	csrw	mie,s2
   10008:	00000493          	li	s1,0
   1000c:	f1402973          	csrr	s2,mhartid
   10010:	03249863          	bne	s1,s2,10040 <_prog_start+0x40>
  li sp, (PAYLOAD_DEST + 0xffff000)
   10014:	00090137          	lui	sp,0x90
   10018:	fff1011b          	addiw	sp,sp,-1 # 8ffff <dtb+0x7f52f>
   1001c:	00c11113          	slli	sp,sp,0xc
  call main
   10020:	1ac000ef          	jal	101cc <main>
  smp_resume(s1, s2)
   10024:	020004b7          	lui	s1,0x2000
   10028:	00100913          	li	s2,1
   1002c:	0124a023          	sw	s2,0(s1) # 2000000 <dtb+0x1fef530>
   10030:	00448493          	addi	s1,s1,4
   10034:	02000937          	lui	s2,0x2000
   10038:	0809091b          	addiw	s2,s2,128 # 2000080 <dtb+0x1fef5b0>
   1003c:	ff24c6e3          	blt	s1,s2,10028 <_prog_start+0x28>
   10040:	10500073          	wfi
   10044:	34402973          	csrr	s2,mip
   10048:	00897913          	andi	s2,s2,8
   1004c:	fe090ae3          	beqz	s2,10040 <_prog_start+0x40>
   10050:	020004b7          	lui	s1,0x2000
   10054:	f1402973          	csrr	s2,mhartid
   10058:	00291913          	slli	s2,s2,0x2
   1005c:	00990933          	add	s2,s2,s1
   10060:	00092023          	sw	zero,0(s2)
   10064:	0004a903          	lw	s2,0(s1) # 2000000 <dtb+0x1fef530>
   10068:	fe091ee3          	bnez	s2,10064 <_prog_start+0x64>
   1006c:	00448493          	addi	s1,s1,4
   10070:	02000937          	lui	s2,0x2000
   10074:	0809091b          	addiw	s2,s2,128 # 2000080 <dtb+0x1fef5b0>
   10078:	ff24c6e3          	blt	s1,s2,10064 <_prog_start+0x64>
  csrr a0, mhartid // hartid for next level bootloader
   1007c:	f1402573          	csrr	a0,mhartid
  la a1, dtb // dtb address for next level bootloader
   10080:	00001597          	auipc	a1,0x1
   10084:	a5058593          	addi	a1,a1,-1456 # 10ad0 <dtb>
  li s1, PAYLOAD_DEST
   10088:	0010049b          	addiw	s1,zero,1
   1008c:	01f49493          	slli	s1,s1,0x1f
  jr s1
   10090:	00048067          	jr	s1

0000000000010094 <sd_cmd>:
{
	return spi_xfer(0xFF);
}

static uint8_t sd_cmd(uint8_t cmd, uint32_t arg, uint8_t crc)
{
   10094:	ff010113          	addi	sp,sp,-16
   10098:	00113423          	sd	ra,8(sp)
   1009c:	00813023          	sd	s0,0(sp)
	unsigned long n;
	uint8_t r;

	REG32(spi, SPI_REG_CSMODE) = SPI_CSMODE_HOLD;
   100a0:	64001737          	lui	a4,0x64001
   100a4:	00200693          	li	a3,2
   100a8:	00d72c23          	sw	a3,24(a4) # 64001018 <dtb+0x63ff0548>
	REG32(spi, SPI_REG_TXFIFO) = d;
   100ac:	640017b7          	lui	a5,0x64001
		r = REG32(spi, SPI_REG_RXFIFO);
   100b0:	64001737          	lui	a4,0x64001
	REG32(spi, SPI_REG_TXFIFO) = d;
   100b4:	0ff00693          	li	a3,255
   100b8:	04d7a423          	sw	a3,72(a5) # 64001048 <dtb+0x63ff0578>
		r = REG32(spi, SPI_REG_RXFIFO);
   100bc:	04c70713          	addi	a4,a4,76 # 6400104c <dtb+0x63ff057c>
   100c0:	00072783          	lw	a5,0(a4)
	} while (r < 0);
   100c4:	fe07cee3          	bltz	a5,100c0 <sd_cmd+0x2c>
	REG32(spi, SPI_REG_TXFIFO) = d;
   100c8:	640017b7          	lui	a5,0x64001
   100cc:	0005051b          	sext.w	a0,a0
		r = REG32(spi, SPI_REG_RXFIFO);
   100d0:	64001737          	lui	a4,0x64001
   100d4:	04c70713          	addi	a4,a4,76 # 6400104c <dtb+0x63ff057c>
	REG32(spi, SPI_REG_TXFIFO) = d;
   100d8:	04a7a423          	sw	a0,72(a5) # 64001048 <dtb+0x63ff0578>
		r = REG32(spi, SPI_REG_RXFIFO);
   100dc:	00072783          	lw	a5,0(a4)
	} while (r < 0);
   100e0:	fe07cee3          	bltz	a5,100dc <sd_cmd+0x48>
	REG32(spi, SPI_REG_TXFIFO) = d;
   100e4:	640017b7          	lui	a5,0x64001
	sd_dummy();
	spi_xfer(cmd);
	spi_xfer(arg >> 24);
   100e8:	0185d69b          	srliw	a3,a1,0x18
		r = REG32(spi, SPI_REG_RXFIFO);
   100ec:	64001737          	lui	a4,0x64001
   100f0:	04c70713          	addi	a4,a4,76 # 6400104c <dtb+0x63ff057c>
	REG32(spi, SPI_REG_TXFIFO) = d;
   100f4:	04d7a423          	sw	a3,72(a5) # 64001048 <dtb+0x63ff0578>
		r = REG32(spi, SPI_REG_RXFIFO);
   100f8:	00072783          	lw	a5,0(a4)
	} while (r < 0);
   100fc:	fe07cee3          	bltz	a5,100f8 <sd_cmd+0x64>
	REG32(spi, SPI_REG_TXFIFO) = d;
   10100:	640017b7          	lui	a5,0x64001
		r = REG32(spi, SPI_REG_RXFIFO);
   10104:	64001737          	lui	a4,0x64001
   10108:	04c70713          	addi	a4,a4,76 # 6400104c <dtb+0x63ff057c>
	REG32(spi, SPI_REG_TXFIFO) = d;
   1010c:	0407a423          	sw	zero,72(a5) # 64001048 <dtb+0x63ff0578>
		r = REG32(spi, SPI_REG_RXFIFO);
   10110:	00072783          	lw	a5,0(a4)
	} while (r < 0);
   10114:	fe07cee3          	bltz	a5,10110 <sd_cmd+0x7c>
	spi_xfer(arg >> 16);
	spi_xfer(arg >> 8);
   10118:	0085d69b          	srliw	a3,a1,0x8
	REG32(spi, SPI_REG_TXFIFO) = d;
   1011c:	640017b7          	lui	a5,0x64001
   10120:	0ff6f693          	zext.b	a3,a3
		r = REG32(spi, SPI_REG_RXFIFO);
   10124:	64001737          	lui	a4,0x64001
   10128:	04c70713          	addi	a4,a4,76 # 6400104c <dtb+0x63ff057c>
	REG32(spi, SPI_REG_TXFIFO) = d;
   1012c:	04d7a423          	sw	a3,72(a5) # 64001048 <dtb+0x63ff0578>
		r = REG32(spi, SPI_REG_RXFIFO);
   10130:	00072783          	lw	a5,0(a4)
	} while (r < 0);
   10134:	fe07cee3          	bltz	a5,10130 <sd_cmd+0x9c>
	REG32(spi, SPI_REG_TXFIFO) = d;
   10138:	640017b7          	lui	a5,0x64001
   1013c:	0ff5f593          	zext.b	a1,a1
		r = REG32(spi, SPI_REG_RXFIFO);
   10140:	64001737          	lui	a4,0x64001
   10144:	04c70713          	addi	a4,a4,76 # 6400104c <dtb+0x63ff057c>
	REG32(spi, SPI_REG_TXFIFO) = d;
   10148:	04b7a423          	sw	a1,72(a5) # 64001048 <dtb+0x63ff0578>
		r = REG32(spi, SPI_REG_RXFIFO);
   1014c:	00072783          	lw	a5,0(a4)
	} while (r < 0);
   10150:	fe07cee3          	bltz	a5,1014c <sd_cmd+0xb8>
	REG32(spi, SPI_REG_TXFIFO) = d;
   10154:	640017b7          	lui	a5,0x64001
   10158:	0006069b          	sext.w	a3,a2
		r = REG32(spi, SPI_REG_RXFIFO);
   1015c:	64001737          	lui	a4,0x64001
   10160:	04c70713          	addi	a4,a4,76 # 6400104c <dtb+0x63ff057c>
	REG32(spi, SPI_REG_TXFIFO) = d;
   10164:	04d7a423          	sw	a3,72(a5) # 64001048 <dtb+0x63ff0578>
		r = REG32(spi, SPI_REG_RXFIFO);
   10168:	00072783          	lw	a5,0(a4)
	} while (r < 0);
   1016c:	fe07cee3          	bltz	a5,10168 <sd_cmd+0xd4>
	REG32(spi, SPI_REG_TXFIFO) = d;
   10170:	64001637          	lui	a2,0x64001
		r = REG32(spi, SPI_REG_RXFIFO);
   10174:	64001737          	lui	a4,0x64001
   10178:	3e800693          	li	a3,1000
	REG32(spi, SPI_REG_TXFIFO) = d;
   1017c:	04860613          	addi	a2,a2,72 # 64001048 <dtb+0x63ff0578>
   10180:	0ff00593          	li	a1,255
		r = REG32(spi, SPI_REG_RXFIFO);
   10184:	04c70713          	addi	a4,a4,76 # 6400104c <dtb+0x63ff057c>
	REG32(spi, SPI_REG_TXFIFO) = d;
   10188:	00b62023          	sw	a1,0(a2)
		r = REG32(spi, SPI_REG_RXFIFO);
   1018c:	00072783          	lw	a5,0(a4)
   10190:	0007841b          	sext.w	s0,a5
	} while (r < 0);
   10194:	fe07cce3          	bltz	a5,1018c <sd_cmd+0xf8>
	spi_xfer(crc);

	n = 1000;
	do {
		r = sd_dummy();
		if (!(r & 0x80)) {
   10198:	0184179b          	slliw	a5,s0,0x18
   1019c:	4187d79b          	sraiw	a5,a5,0x18
   101a0:	0007dc63          	bgez	a5,101b8 <sd_cmd+0x124>
//			dprintf("sd:cmd: %hx\r\n", r);
			goto done;
		}
	} while (--n > 0);
   101a4:	fff68693          	addi	a3,a3,-1
   101a8:	fe0690e3          	bnez	a3,10188 <sd_cmd+0xf4>
	kputs("sd_cmd: timeout");
   101ac:	00001517          	auipc	a0,0x1
   101b0:	82450513          	addi	a0,a0,-2012 # 109d0 <spinner+0x8>
   101b4:	5f4000ef          	jal	107a8 <kputs>
done:
	return r;
}
   101b8:	00813083          	ld	ra,8(sp)
   101bc:	0ff47513          	zext.b	a0,s0
   101c0:	00013403          	ld	s0,0(sp)
   101c4:	01010113          	addi	sp,sp,16
   101c8:	00008067          	ret

00000000000101cc <main>:
	kputs("\b ");
	return rc;
}

int main(void)
{
   101cc:	fd010113          	addi	sp,sp,-48
   101d0:	02813023          	sd	s0,32(sp)
	REG32(uart, UART_REG_TXCTRL) = UART_TXEN;
   101d4:	640007b7          	lui	a5,0x64000
{
   101d8:	02113423          	sd	ra,40(sp)
	REG32(uart, UART_REG_TXCTRL) = UART_TXEN;
   101dc:	00100413          	li	s0,1
   101e0:	0087a423          	sw	s0,8(a5) # 64000008 <dtb+0x63fef538>

	kputs("INIT");
   101e4:	00000517          	auipc	a0,0x0
   101e8:	7fc50513          	addi	a0,a0,2044 # 109e0 <spinner+0x18>
   101ec:	5bc000ef          	jal	107a8 <kputs>
	REG32(spi, SPI_REG_SCKDIV) = SPI_DIV;
   101f0:	64001737          	lui	a4,0x64001
   101f4:	00872023          	sw	s0,0(a4) # 64001000 <dtb+0x63ff0530>
	REG32(spi, SPI_REG_CSMODE) = SPI_CSMODE_OFF;
   101f8:	00300693          	li	a3,3
   101fc:	640017b7          	lui	a5,0x64001
	REG32(spi, SPI_REG_TXFIFO) = d;
   10200:	64001637          	lui	a2,0x64001
	REG32(spi, SPI_REG_CSMODE) = SPI_CSMODE_OFF;
   10204:	00d7ac23          	sw	a3,24(a5) # 64001018 <dtb+0x63ff0548>
	REG32(spi, SPI_REG_TXFIFO) = d;
   10208:	04860613          	addi	a2,a2,72 # 64001048 <dtb+0x63ff0578>
	REG32(spi, SPI_REG_CSMODE) = SPI_CSMODE_OFF;
   1020c:	00a00693          	li	a3,10
	REG32(spi, SPI_REG_TXFIFO) = d;
   10210:	0ff00593          	li	a1,255
		r = REG32(spi, SPI_REG_RXFIFO);
   10214:	04c70713          	addi	a4,a4,76
	REG32(spi, SPI_REG_TXFIFO) = d;
   10218:	00b62023          	sw	a1,0(a2)
		r = REG32(spi, SPI_REG_RXFIFO);
   1021c:	00072783          	lw	a5,0(a4)
	} while (r < 0);
   10220:	fe07cee3          	bltz	a5,1021c <main+0x50>
	for (i = 10; i > 0; i--) {
   10224:	fff68693          	addi	a3,a3,-1
   10228:	fe0698e3          	bnez	a3,10218 <main+0x4c>
	REG32(spi, SPI_REG_CSMODE) = SPI_CSMODE_AUTO;
   1022c:	640017b7          	lui	a5,0x64001
   10230:	0007ac23          	sw	zero,24(a5) # 64001018 <dtb+0x63ff0548>
	dputs("CMD0");
   10234:	00000517          	auipc	a0,0x0
   10238:	7b450513          	addi	a0,a0,1972 # 109e8 <spinner+0x20>
   1023c:	56c000ef          	jal	107a8 <kputs>
	rc = (sd_cmd(0x40, 0, 0x95) != 0x01);
   10240:	09500613          	li	a2,149
   10244:	00000593          	li	a1,0
   10248:	04000513          	li	a0,64
   1024c:	e49ff0ef          	jal	10094 <sd_cmd>
	REG32(spi, SPI_REG_TXFIFO) = d;
   10250:	640017b7          	lui	a5,0x64001
		r = REG32(spi, SPI_REG_RXFIFO);
   10254:	64001737          	lui	a4,0x64001
	REG32(spi, SPI_REG_TXFIFO) = d;
   10258:	0ff00693          	li	a3,255
   1025c:	04d7a423          	sw	a3,72(a5) # 64001048 <dtb+0x63ff0578>
		r = REG32(spi, SPI_REG_RXFIFO);
   10260:	04c70713          	addi	a4,a4,76 # 6400104c <dtb+0x63ff057c>
   10264:	00072783          	lw	a5,0(a4)
	} while (r < 0);
   10268:	fe07cee3          	bltz	a5,10264 <main+0x98>
	REG32(spi, SPI_REG_CSMODE) = SPI_CSMODE_AUTO;
   1026c:	640017b7          	lui	a5,0x64001
	sd_poweron();
	if (sd_cmd0() ||
   10270:	00100713          	li	a4,1
	REG32(spi, SPI_REG_CSMODE) = SPI_CSMODE_AUTO;
   10274:	0007ac23          	sw	zero,24(a5) # 64001018 <dtb+0x63ff0548>
	if (sd_cmd0() ||
   10278:	0ee51e63          	bne	a0,a4,10374 <main+0x1a8>
	dputs("CMD8");
   1027c:	00000517          	auipc	a0,0x0
   10280:	77450513          	addi	a0,a0,1908 # 109f0 <spinner+0x28>
   10284:	00913c23          	sd	s1,24(sp)
   10288:	520000ef          	jal	107a8 <kputs>
	rc = (sd_cmd(0x48, 0x000001AA, 0x87) != 0x01);
   1028c:	1aa00593          	li	a1,426
   10290:	08700613          	li	a2,135
   10294:	04800513          	li	a0,72
   10298:	dfdff0ef          	jal	10094 <sd_cmd>
   1029c:	0005069b          	sext.w	a3,a0
   102a0:	fff68693          	addi	a3,a3,-1
	REG32(spi, SPI_REG_TXFIFO) = d;
   102a4:	640017b7          	lui	a5,0x64001
		r = REG32(spi, SPI_REG_RXFIFO);
   102a8:	64001737          	lui	a4,0x64001
	rc = (sd_cmd(0x48, 0x000001AA, 0x87) != 0x01);
   102ac:	00d035b3          	snez	a1,a3
	REG32(spi, SPI_REG_TXFIFO) = d;
   102b0:	0ff00693          	li	a3,255
   102b4:	04d7a423          	sw	a3,72(a5) # 64001048 <dtb+0x63ff0578>
		r = REG32(spi, SPI_REG_RXFIFO);
   102b8:	04c70713          	addi	a4,a4,76 # 6400104c <dtb+0x63ff057c>
   102bc:	00072783          	lw	a5,0(a4)
	} while (r < 0);
   102c0:	fe07cee3          	bltz	a5,102bc <main+0xf0>
	REG32(spi, SPI_REG_TXFIFO) = d;
   102c4:	640017b7          	lui	a5,0x64001
		r = REG32(spi, SPI_REG_RXFIFO);
   102c8:	64001737          	lui	a4,0x64001
	REG32(spi, SPI_REG_TXFIFO) = d;
   102cc:	0ff00693          	li	a3,255
   102d0:	04d7a423          	sw	a3,72(a5) # 64001048 <dtb+0x63ff0578>
		r = REG32(spi, SPI_REG_RXFIFO);
   102d4:	04c70713          	addi	a4,a4,76 # 6400104c <dtb+0x63ff057c>
   102d8:	00072783          	lw	a5,0(a4)
	} while (r < 0);
   102dc:	fe07cee3          	bltz	a5,102d8 <main+0x10c>
	REG32(spi, SPI_REG_TXFIFO) = d;
   102e0:	640017b7          	lui	a5,0x64001
		r = REG32(spi, SPI_REG_RXFIFO);
   102e4:	640016b7          	lui	a3,0x64001
	REG32(spi, SPI_REG_TXFIFO) = d;
   102e8:	0ff00713          	li	a4,255
   102ec:	04e7a423          	sw	a4,72(a5) # 64001048 <dtb+0x63ff0578>
		r = REG32(spi, SPI_REG_RXFIFO);
   102f0:	04c68693          	addi	a3,a3,76 # 6400104c <dtb+0x63ff057c>
   102f4:	0006a783          	lw	a5,0(a3)
   102f8:	0007871b          	sext.w	a4,a5
	} while (r < 0);
   102fc:	fe07cce3          	bltz	a5,102f4 <main+0x128>
	rc |= ((sd_dummy() & 0xF) != 0x1); /* voltage */
   10300:	00f77713          	andi	a4,a4,15
   10304:	fff70793          	addi	a5,a4,-1
	REG32(spi, SPI_REG_TXFIFO) = d;
   10308:	640016b7          	lui	a3,0x64001
		r = REG32(spi, SPI_REG_RXFIFO);
   1030c:	64001637          	lui	a2,0x64001
	rc |= ((sd_dummy() & 0xF) != 0x1); /* voltage */
   10310:	00f03733          	snez	a4,a5
	REG32(spi, SPI_REG_TXFIFO) = d;
   10314:	0ff00793          	li	a5,255
   10318:	04f6a423          	sw	a5,72(a3) # 64001048 <dtb+0x63ff0578>
		r = REG32(spi, SPI_REG_RXFIFO);
   1031c:	04c60613          	addi	a2,a2,76 # 6400104c <dtb+0x63ff057c>
   10320:	00062783          	lw	a5,0(a2)
   10324:	0007869b          	sext.w	a3,a5
	} while (r < 0);
   10328:	fe07cce3          	bltz	a5,10320 <main+0x154>
	rc |= (sd_dummy() != 0xAA); /* check pattern */
   1032c:	0ff6f793          	zext.b	a5,a3
   10330:	f5678793          	addi	a5,a5,-170
   10334:	00f037b3          	snez	a5,a5
   10338:	00f767b3          	or	a5,a4,a5
   1033c:	00f5e6b3          	or	a3,a1,a5
	REG32(spi, SPI_REG_TXFIFO) = d;
   10340:	64001637          	lui	a2,0x64001
		r = REG32(spi, SPI_REG_RXFIFO);
   10344:	64001737          	lui	a4,0x64001
	REG32(spi, SPI_REG_TXFIFO) = d;
   10348:	0ff00793          	li	a5,255
   1034c:	0ff6f693          	zext.b	a3,a3
   10350:	04f62423          	sw	a5,72(a2) # 64001048 <dtb+0x63ff0578>
		r = REG32(spi, SPI_REG_RXFIFO);
   10354:	04c70713          	addi	a4,a4,76 # 6400104c <dtb+0x63ff057c>
   10358:	00072783          	lw	a5,0(a4)
	} while (r < 0);
   1035c:	fe07cee3          	bltz	a5,10358 <main+0x18c>
	REG32(spi, SPI_REG_CSMODE) = SPI_CSMODE_AUTO;
   10360:	640014b7          	lui	s1,0x64001
   10364:	0004ac23          	sw	zero,24(s1) # 64001018 <dtb+0x63ff0548>
   10368:	01848493          	addi	s1,s1,24
	if (sd_cmd0() ||
   1036c:	02068663          	beqz	a3,10398 <main+0x1cc>
   10370:	01813483          	ld	s1,24(sp)
	    sd_cmd8() ||
	    sd_acmd41() ||
	    sd_cmd58() ||
	    sd_cmd16() ||
	    copy()) {
		kputs("ERROR");
   10374:	00000517          	auipc	a0,0x0
   10378:	6f450513          	addi	a0,a0,1780 # 10a68 <spinner+0xa0>
   1037c:	42c000ef          	jal	107a8 <kputs>
		return 1;
   10380:	00100413          	li	s0,1
	kputs("BOOT");

	__asm__ __volatile__ ("fence.i" : : : "memory");

	return 0;
}
   10384:	02813083          	ld	ra,40(sp)
   10388:	00040513          	mv	a0,s0
   1038c:	02013403          	ld	s0,32(sp)
   10390:	03010113          	addi	sp,sp,48
   10394:	00008067          	ret
   10398:	01213823          	sd	s2,16(sp)
	dputs("ACMD41");
   1039c:	00000517          	auipc	a0,0x0
   103a0:	65c50513          	addi	a0,a0,1628 # 109f8 <spinner+0x30>
	REG32(spi, SPI_REG_TXFIFO) = d;
   103a4:	64001937          	lui	s2,0x64001
		r = REG32(spi, SPI_REG_RXFIFO);
   103a8:	64001437          	lui	s0,0x64001
   103ac:	01313423          	sd	s3,8(sp)
   103b0:	01413023          	sd	s4,0(sp)
	REG32(spi, SPI_REG_TXFIFO) = d;
   103b4:	04890913          	addi	s2,s2,72 # 64001048 <dtb+0x63ff0578>
	dputs("ACMD41");
   103b8:	3f0000ef          	jal	107a8 <kputs>
	REG32(spi, SPI_REG_TXFIFO) = d;
   103bc:	0ff00a13          	li	s4,255
		r = REG32(spi, SPI_REG_RXFIFO);
   103c0:	04c40413          	addi	s0,s0,76 # 6400104c <dtb+0x63ff057c>
	} while (r == 0x01);
   103c4:	00100993          	li	s3,1
	sd_cmd(0x77, 0, 0x65);
   103c8:	06500613          	li	a2,101
   103cc:	00000593          	li	a1,0
   103d0:	07700513          	li	a0,119
   103d4:	cc1ff0ef          	jal	10094 <sd_cmd>
	REG32(spi, SPI_REG_TXFIFO) = d;
   103d8:	01492023          	sw	s4,0(s2)
		r = REG32(spi, SPI_REG_RXFIFO);
   103dc:	00042783          	lw	a5,0(s0)
	} while (r < 0);
   103e0:	fe07cee3          	bltz	a5,103dc <main+0x210>
	REG32(spi, SPI_REG_CSMODE) = SPI_CSMODE_AUTO;
   103e4:	0004a023          	sw	zero,0(s1)
		r = sd_cmd(0x69, 0x40000000, 0x77); /* HCS = 1 */
   103e8:	07700613          	li	a2,119
   103ec:	400005b7          	lui	a1,0x40000
   103f0:	06900513          	li	a0,105
   103f4:	ca1ff0ef          	jal	10094 <sd_cmd>
	} while (r == 0x01);
   103f8:	fd3508e3          	beq	a0,s3,103c8 <main+0x1fc>
	    sd_cmd8() ||
   103fc:	00050c63          	beqz	a0,10414 <main+0x248>
   10400:	01813483          	ld	s1,24(sp)
   10404:	01013903          	ld	s2,16(sp)
   10408:	00813983          	ld	s3,8(sp)
   1040c:	00013a03          	ld	s4,0(sp)
   10410:	f65ff06f          	j	10374 <main+0x1a8>
	dputs("CMD58");
   10414:	00000517          	auipc	a0,0x0
   10418:	5ec50513          	addi	a0,a0,1516 # 10a00 <spinner+0x38>
   1041c:	38c000ef          	jal	107a8 <kputs>
	rc = (sd_cmd(0x7A, 0, 0xFD) != 0x00);
   10420:	0fd00613          	li	a2,253
   10424:	00000593          	li	a1,0
   10428:	07a00513          	li	a0,122
   1042c:	c69ff0ef          	jal	10094 <sd_cmd>
	REG32(spi, SPI_REG_TXFIFO) = d;
   10430:	640017b7          	lui	a5,0x64001
		r = REG32(spi, SPI_REG_RXFIFO);
   10434:	640016b7          	lui	a3,0x64001
	REG32(spi, SPI_REG_TXFIFO) = d;
   10438:	0ff00713          	li	a4,255
	rc = (sd_cmd(0x7A, 0, 0xFD) != 0x00);
   1043c:	00a03633          	snez	a2,a0
	REG32(spi, SPI_REG_TXFIFO) = d;
   10440:	04e7a423          	sw	a4,72(a5) # 64001048 <dtb+0x63ff0578>
		r = REG32(spi, SPI_REG_RXFIFO);
   10444:	04c68693          	addi	a3,a3,76 # 6400104c <dtb+0x63ff057c>
   10448:	0006a783          	lw	a5,0(a3)
   1044c:	0007871b          	sext.w	a4,a5
	} while (r < 0);
   10450:	fe07cce3          	bltz	a5,10448 <main+0x27c>
	rc |= ((sd_dummy() & 0x80) != 0x80); /* Power up status */
   10454:	4077579b          	sraiw	a5,a4,0x7
   10458:	0017c793          	xori	a5,a5,1
   1045c:	0017f793          	andi	a5,a5,1
	REG32(spi, SPI_REG_TXFIFO) = d;
   10460:	640015b7          	lui	a1,0x64001
		r = REG32(spi, SPI_REG_RXFIFO);
   10464:	64001737          	lui	a4,0x64001
   10468:	00f666b3          	or	a3,a2,a5
	REG32(spi, SPI_REG_TXFIFO) = d;
   1046c:	0ff00793          	li	a5,255
   10470:	04f5a423          	sw	a5,72(a1) # 64001048 <dtb+0x63ff0578>
		r = REG32(spi, SPI_REG_RXFIFO);
   10474:	04c70713          	addi	a4,a4,76 # 6400104c <dtb+0x63ff057c>
   10478:	00072783          	lw	a5,0(a4)
	} while (r < 0);
   1047c:	fe07cee3          	bltz	a5,10478 <main+0x2ac>
	REG32(spi, SPI_REG_TXFIFO) = d;
   10480:	640017b7          	lui	a5,0x64001
		r = REG32(spi, SPI_REG_RXFIFO);
   10484:	64001737          	lui	a4,0x64001
	REG32(spi, SPI_REG_TXFIFO) = d;
   10488:	0ff00613          	li	a2,255
   1048c:	04c7a423          	sw	a2,72(a5) # 64001048 <dtb+0x63ff0578>
		r = REG32(spi, SPI_REG_RXFIFO);
   10490:	04c70713          	addi	a4,a4,76 # 6400104c <dtb+0x63ff057c>
   10494:	00072783          	lw	a5,0(a4)
	} while (r < 0);
   10498:	fe07cee3          	bltz	a5,10494 <main+0x2c8>
	REG32(spi, SPI_REG_TXFIFO) = d;
   1049c:	640017b7          	lui	a5,0x64001
		r = REG32(spi, SPI_REG_RXFIFO);
   104a0:	64001737          	lui	a4,0x64001
	REG32(spi, SPI_REG_TXFIFO) = d;
   104a4:	0ff00613          	li	a2,255
   104a8:	04c7a423          	sw	a2,72(a5) # 64001048 <dtb+0x63ff0578>
		r = REG32(spi, SPI_REG_RXFIFO);
   104ac:	04c70713          	addi	a4,a4,76 # 6400104c <dtb+0x63ff057c>
   104b0:	00072783          	lw	a5,0(a4)
	} while (r < 0);
   104b4:	fe07cee3          	bltz	a5,104b0 <main+0x2e4>
	REG32(spi, SPI_REG_TXFIFO) = d;
   104b8:	640017b7          	lui	a5,0x64001
		r = REG32(spi, SPI_REG_RXFIFO);
   104bc:	64001737          	lui	a4,0x64001
	REG32(spi, SPI_REG_TXFIFO) = d;
   104c0:	0ff00613          	li	a2,255
   104c4:	04c7a423          	sw	a2,72(a5) # 64001048 <dtb+0x63ff0578>
		r = REG32(spi, SPI_REG_RXFIFO);
   104c8:	04c70713          	addi	a4,a4,76 # 6400104c <dtb+0x63ff057c>
   104cc:	00072783          	lw	a5,0(a4)
	} while (r < 0);
   104d0:	fe07cee3          	bltz	a5,104cc <main+0x300>
	REG32(spi, SPI_REG_CSMODE) = SPI_CSMODE_AUTO;
   104d4:	640017b7          	lui	a5,0x64001
   104d8:	0007ac23          	sw	zero,24(a5) # 64001018 <dtb+0x63ff0548>
	    sd_acmd41() ||
   104dc:	f20692e3          	bnez	a3,10400 <main+0x234>
	dputs("CMD16");
   104e0:	00000517          	auipc	a0,0x0
   104e4:	52850513          	addi	a0,a0,1320 # 10a08 <spinner+0x40>
   104e8:	2c0000ef          	jal	107a8 <kputs>
	rc = (sd_cmd(0x50, 0x200, 0x15) != 0x00);
   104ec:	01500613          	li	a2,21
   104f0:	20000593          	li	a1,512
   104f4:	05000513          	li	a0,80
   104f8:	b9dff0ef          	jal	10094 <sd_cmd>
	REG32(spi, SPI_REG_TXFIFO) = d;
   104fc:	640016b7          	lui	a3,0x64001
		r = REG32(spi, SPI_REG_RXFIFO);
   10500:	640017b7          	lui	a5,0x64001
	REG32(spi, SPI_REG_TXFIFO) = d;
   10504:	0ff00613          	li	a2,255
	rc = (sd_cmd(0x50, 0x200, 0x15) != 0x00);
   10508:	00050713          	mv	a4,a0
	REG32(spi, SPI_REG_TXFIFO) = d;
   1050c:	04c6a423          	sw	a2,72(a3) # 64001048 <dtb+0x63ff0578>
		r = REG32(spi, SPI_REG_RXFIFO);
   10510:	04c78793          	addi	a5,a5,76 # 6400104c <dtb+0x63ff057c>
   10514:	0007a683          	lw	a3,0(a5)
	} while (r < 0);
   10518:	fe06cee3          	bltz	a3,10514 <main+0x348>
	REG32(spi, SPI_REG_CSMODE) = SPI_CSMODE_AUTO;
   1051c:	640017b7          	lui	a5,0x64001
   10520:	0007ac23          	sw	zero,24(a5) # 64001018 <dtb+0x63ff0548>
	    sd_cmd58() ||
   10524:	ec071ee3          	bnez	a4,10400 <main+0x234>
	dputs("CMD18");
   10528:	00000517          	auipc	a0,0x0
   1052c:	4e850513          	addi	a0,a0,1256 # 10a10 <spinner+0x48>
   10530:	278000ef          	jal	107a8 <kputs>
	kprintf("LOADING 0x%x B PAYLOAD\r\n", PAYLOAD_SIZE_B);
   10534:	01e005b7          	lui	a1,0x1e00
   10538:	00000517          	auipc	a0,0x0
   1053c:	4e050513          	addi	a0,a0,1248 # 10a18 <spinner+0x50>
   10540:	2b8000ef          	jal	107f8 <kprintf>
	kprintf("LOADING  ");
   10544:	00000517          	auipc	a0,0x0
   10548:	4f450513          	addi	a0,a0,1268 # 10a38 <spinner+0x70>
   1054c:	2ac000ef          	jal	107f8 <kprintf>
	REG32(spi, SPI_REG_SCKDIV) = SPI_DIV;
   10550:	640017b7          	lui	a5,0x64001
   10554:	00100713          	li	a4,1
   10558:	00e7a023          	sw	a4,0(a5) # 64001000 <dtb+0x63ff0530>
	if (sd_cmd(0x52, BBL_PARTITION_START_SECTOR, 0xE1) != 0x00) {
   1055c:	0e100613          	li	a2,225
   10560:	02200593          	li	a1,34
   10564:	05200513          	li	a0,82
   10568:	b2dff0ef          	jal	10094 <sd_cmd>
   1056c:	20051263          	bnez	a0,10770 <main+0x5a4>
	volatile uint8_t *p = (void *)(PAYLOAD_DEST);
   10570:	00100893          	li	a7,1
	REG32(spi, SPI_REG_TXFIFO) = d;
   10574:	64001537          	lui	a0,0x64001
		r = REG32(spi, SPI_REG_RXFIFO);
   10578:	64001637          	lui	a2,0x64001
	crc ^= (crc & 0xff) << 5;
   1057c:	00002337          	lui	t1,0x2
	} while (--i > 0);
   10580:	40f00293          	li	t0,1039
	long i = PAYLOAD_SIZE;
   10584:	0000ffb7          	lui	t6,0xf
	volatile uint8_t *p = (void *)(PAYLOAD_DEST);
   10588:	01f89893          	slli	a7,a7,0x1f
	REG32(spi, SPI_REG_TXFIFO) = d;
   1058c:	04850513          	addi	a0,a0,72 # 64001048 <dtb+0x63ff0578>
   10590:	0ff00393          	li	t2,255
   10594:	0ff00813          	li	a6,255
		r = REG32(spi, SPI_REG_RXFIFO);
   10598:	04c60613          	addi	a2,a2,76 # 6400104c <dtb+0x63ff057c>
		while (sd_dummy() != 0xFE);
   1059c:	0fe00e93          	li	t4,254
	crc ^= (crc & 0xff) << 5;
   105a0:	fe030313          	addi	t1,t1,-32 # 1fe0 <_prog_start-0xe020>
{
	volatile uint32_t *tx = &REG32(uart, UART_REG_TXFIFO);
#ifdef __riscv_atomic
	int32_t r;
	do {
		__asm__ __volatile__ (
   105a4:	64000e37          	lui	t3,0x64000
   105a8:	00800f13          	li	t5,8
			kputc(spinner[SPIN_INDEX(i)]);
   105ac:	00000097          	auipc	ra,0x0
   105b0:	41c08093          	addi	ra,ra,1052 # 109c8 <spinner>
	} while (--i > 0);
   105b4:	01529293          	slli	t0,t0,0x15
	REG32(spi, SPI_REG_TXFIFO) = d;
   105b8:	01052023          	sw	a6,0(a0)
		r = REG32(spi, SPI_REG_RXFIFO);
   105bc:	00062783          	lw	a5,0(a2)
   105c0:	0007871b          	sext.w	a4,a5
	} while (r < 0);
   105c4:	fe07cce3          	bltz	a5,105bc <main+0x3f0>
		while (sd_dummy() != 0xFE);
   105c8:	0ff77713          	zext.b	a4,a4
   105cc:	ffd716e3          	bne	a4,t4,105b8 <main+0x3ec>
   105d0:	00088593          	mv	a1,a7
		crc = 0;
   105d4:	00000693          	li	a3,0
   105d8:	20088893          	addi	a7,a7,512
	REG32(spi, SPI_REG_TXFIFO) = d;
   105dc:	01052023          	sw	a6,0(a0)
		r = REG32(spi, SPI_REG_RXFIFO);
   105e0:	00062783          	lw	a5,0(a2)
   105e4:	0007871b          	sext.w	a4,a5
	} while (r < 0);
   105e8:	fe07cce3          	bltz	a5,105e0 <main+0x414>
	crc = (uint8_t)(crc >> 8) | (crc << 8);
   105ec:	0086979b          	slliw	a5,a3,0x8
   105f0:	0086d69b          	srliw	a3,a3,0x8
   105f4:	00d7e7b3          	or	a5,a5,a3
   105f8:	03079793          	slli	a5,a5,0x30
	return r;
   105fc:	0ff77713          	zext.b	a4,a4
	crc = (uint8_t)(crc >> 8) | (crc << 8);
   10600:	0307d793          	srli	a5,a5,0x30
	crc ^= data;
   10604:	00f747b3          	xor	a5,a4,a5
	crc ^= (uint8_t)(crc >> 4) & 0xf;
   10608:	0047d69b          	srliw	a3,a5,0x4
   1060c:	00f6f693          	andi	a3,a3,15
   10610:	00d7c7b3          	xor	a5,a5,a3
   10614:	0107979b          	slliw	a5,a5,0x10
   10618:	4107d79b          	sraiw	a5,a5,0x10
	crc ^= crc << 12;
   1061c:	00c7969b          	slliw	a3,a5,0xc
   10620:	00d7c7b3          	xor	a5,a5,a3
   10624:	0107979b          	slliw	a5,a5,0x10
   10628:	4107d79b          	sraiw	a5,a5,0x10
	crc ^= (crc & 0xff) << 5;
   1062c:	0057969b          	slliw	a3,a5,0x5
   10630:	00d376b3          	and	a3,t1,a3
   10634:	00d7c7b3          	xor	a5,a5,a3
   10638:	03079693          	slli	a3,a5,0x30
			*p++ = x;
   1063c:	00158413          	addi	s0,a1,1 # 1e00001 <dtb+0x1def531>
   10640:	00e58023          	sb	a4,0(a1)
	crc ^= (crc & 0xff) << 5;
   10644:	0306d693          	srli	a3,a3,0x30
		} while (--n > 0);
   10648:	01140663          	beq	s0,a7,10654 <main+0x488>
			*p++ = x;
   1064c:	00040593          	mv	a1,s0
   10650:	f8dff06f          	j	105dc <main+0x410>
	REG32(spi, SPI_REG_TXFIFO) = d;
   10654:	00752023          	sw	t2,0(a0)
		r = REG32(spi, SPI_REG_RXFIFO);
   10658:	00062783          	lw	a5,0(a2)
   1065c:	0007871b          	sext.w	a4,a5
	} while (r < 0);
   10660:	fe07cce3          	bltz	a5,10658 <main+0x48c>
		crc_exp = ((uint16_t)sd_dummy() << 8);
   10664:	0ff77713          	zext.b	a4,a4
   10668:	0087171b          	slliw	a4,a4,0x8
   1066c:	03071713          	slli	a4,a4,0x30
   10670:	03075713          	srli	a4,a4,0x30
	REG32(spi, SPI_REG_TXFIFO) = d;
   10674:	00752023          	sw	t2,0(a0)
		r = REG32(spi, SPI_REG_RXFIFO);
   10678:	00062783          	lw	a5,0(a2)
   1067c:	0007859b          	sext.w	a1,a5
	} while (r < 0);
   10680:	fe07cce3          	bltz	a5,10678 <main+0x4ac>
		crc_exp |= sd_dummy();
   10684:	0ff5f793          	zext.b	a5,a1
		if (crc != crc_exp) {
   10688:	00e7e7b3          	or	a5,a5,a4
   1068c:	0cd79863          	bne	a5,a3,1075c <main+0x590>
		if (SPIN_UPDATE(i)) {
   10690:	03fff793          	andi	a5,t6,63
   10694:	08078e63          	beqz	a5,10730 <main+0x564>
	} while (--i > 0);
   10698:	ffff8f93          	addi	t6,t6,-1 # efff <_prog_start-0x1001>
   1069c:	f0541ee3          	bne	s0,t0,105b8 <main+0x3ec>
	int rc = 0;
   106a0:	00000413          	li	s0,0
	REG32(spi, SPI_REG_TXFIFO) = d;
   106a4:	64001737          	lui	a4,0x64001
		r = REG32(spi, SPI_REG_RXFIFO);
   106a8:	640017b7          	lui	a5,0x64001
	REG32(spi, SPI_REG_TXFIFO) = d;
   106ac:	0ff00693          	li	a3,255
   106b0:	04d72423          	sw	a3,72(a4) # 64001048 <dtb+0x63ff0578>
		r = REG32(spi, SPI_REG_RXFIFO);
   106b4:	04c78793          	addi	a5,a5,76 # 6400104c <dtb+0x63ff057c>
   106b8:	0007a703          	lw	a4,0(a5)
	} while (r < 0);
   106bc:	fe074ee3          	bltz	a4,106b8 <main+0x4ec>
	REG32(spi, SPI_REG_CSMODE) = SPI_CSMODE_AUTO;
   106c0:	640017b7          	lui	a5,0x64001
   106c4:	0007ac23          	sw	zero,24(a5) # 64001018 <dtb+0x63ff0548>
	sd_cmd(0x4C, 0, 0x01);
   106c8:	00100613          	li	a2,1
   106cc:	00000593          	li	a1,0
   106d0:	04c00513          	li	a0,76
   106d4:	9c1ff0ef          	jal	10094 <sd_cmd>
	REG32(spi, SPI_REG_TXFIFO) = d;
   106d8:	64001737          	lui	a4,0x64001
		r = REG32(spi, SPI_REG_RXFIFO);
   106dc:	640017b7          	lui	a5,0x64001
	REG32(spi, SPI_REG_TXFIFO) = d;
   106e0:	0ff00693          	li	a3,255
   106e4:	04d72423          	sw	a3,72(a4) # 64001048 <dtb+0x63ff0578>
		r = REG32(spi, SPI_REG_RXFIFO);
   106e8:	04c78793          	addi	a5,a5,76 # 6400104c <dtb+0x63ff057c>
   106ec:	0007a703          	lw	a4,0(a5)
	} while (r < 0);
   106f0:	fe074ee3          	bltz	a4,106ec <main+0x520>
	REG32(spi, SPI_REG_CSMODE) = SPI_CSMODE_AUTO;
   106f4:	640017b7          	lui	a5,0x64001
	kputs("\b ");
   106f8:	00000517          	auipc	a0,0x0
   106fc:	36850513          	addi	a0,a0,872 # 10a60 <spinner+0x98>
	REG32(spi, SPI_REG_CSMODE) = SPI_CSMODE_AUTO;
   10700:	0007ac23          	sw	zero,24(a5) # 64001018 <dtb+0x63ff0548>
	kputs("\b ");
   10704:	0a4000ef          	jal	107a8 <kputs>
	    sd_cmd16() ||
   10708:	ce041ce3          	bnez	s0,10400 <main+0x234>
	kputs("BOOT");
   1070c:	00000517          	auipc	a0,0x0
   10710:	36450513          	addi	a0,a0,868 # 10a70 <spinner+0xa8>
   10714:	094000ef          	jal	107a8 <kputs>
	__asm__ __volatile__ ("fence.i" : : : "memory");
   10718:	0000100f          	fence.i
   1071c:	01813483          	ld	s1,24(sp)
   10720:	01013903          	ld	s2,16(sp)
   10724:	00813983          	ld	s3,8(sp)
   10728:	00013a03          	ld	s4,0(sp)
	return 0;
   1072c:	c59ff06f          	j	10384 <main+0x1b8>
   10730:	41ee27af          	amoor.w	a5,t5,(t3)
			"amoor.w %0, %2, %1\n"
			: "=r" (r), "+A" (*tx)
			: "r" (c));
	} while (r < 0);
   10734:	02079713          	slli	a4,a5,0x20
   10738:	fe074ce3          	bltz	a4,10730 <main+0x564>
			kputc(spinner[SPIN_INDEX(i)]);
   1073c:	406fd793          	srai	a5,t6,0x6
   10740:	0037f793          	andi	a5,a5,3
   10744:	00f087b3          	add	a5,ra,a5
   10748:	0007c783          	lbu	a5,0(a5)
		__asm__ __volatile__ (
   1074c:	40fe272f          	amoor.w	a4,a5,(t3)
	} while (r < 0);
   10750:	02071693          	slli	a3,a4,0x20
   10754:	fe06cce3          	bltz	a3,1074c <main+0x580>
   10758:	f41ff06f          	j	10698 <main+0x4cc>
			kputs("\b- CRC mismatch ");
   1075c:	00000517          	auipc	a0,0x0
   10760:	2ec50513          	addi	a0,a0,748 # 10a48 <spinner+0x80>
   10764:	044000ef          	jal	107a8 <kputs>
			rc = 1;
   10768:	00100413          	li	s0,1
			break;
   1076c:	f39ff06f          	j	106a4 <main+0x4d8>
	REG32(spi, SPI_REG_TXFIFO) = d;
   10770:	64001737          	lui	a4,0x64001
		r = REG32(spi, SPI_REG_RXFIFO);
   10774:	640017b7          	lui	a5,0x64001
	REG32(spi, SPI_REG_TXFIFO) = d;
   10778:	0ff00693          	li	a3,255
   1077c:	04d72423          	sw	a3,72(a4) # 64001048 <dtb+0x63ff0578>
		r = REG32(spi, SPI_REG_RXFIFO);
   10780:	04c78793          	addi	a5,a5,76 # 6400104c <dtb+0x63ff057c>
   10784:	0007a703          	lw	a4,0(a5)
	} while (r < 0);
   10788:	fe074ee3          	bltz	a4,10784 <main+0x5b8>
	REG32(spi, SPI_REG_CSMODE) = SPI_CSMODE_AUTO;
   1078c:	640017b7          	lui	a5,0x64001
   10790:	01813483          	ld	s1,24(sp)
   10794:	01013903          	ld	s2,16(sp)
   10798:	00813983          	ld	s3,8(sp)
   1079c:	00013a03          	ld	s4,0(sp)
   107a0:	0007ac23          	sw	zero,24(a5) # 64001018 <dtb+0x63ff0548>
		return 1;
   107a4:	bd1ff06f          	j	10374 <main+0x1a8>

00000000000107a8 <kputs>:
#include "kprintf.h"

static inline void _kputs(const char *s)
{
	char c;
	for (; (c = *s) != '\0'; s++)
   107a8:	00054703          	lbu	a4,0(a0)
   107ac:	02070063          	beqz	a4,107cc <kputs+0x24>
		__asm__ __volatile__ (
   107b0:	640007b7          	lui	a5,0x64000
   107b4:	40e7a6af          	amoor.w	a3,a4,(a5)
	} while (r < 0);
   107b8:	02069613          	slli	a2,a3,0x20
   107bc:	fe064ce3          	bltz	a2,107b4 <kputs+0xc>
   107c0:	00154703          	lbu	a4,1(a0)
   107c4:	00150513          	addi	a0,a0,1
   107c8:	fe0716e3          	bnez	a4,107b4 <kputs+0xc>
		__asm__ __volatile__ (
   107cc:	640007b7          	lui	a5,0x64000
   107d0:	00d00713          	li	a4,13
   107d4:	40e7a6af          	amoor.w	a3,a4,(a5)
	} while (r < 0);
   107d8:	02069613          	slli	a2,a3,0x20
   107dc:	fe064ce3          	bltz	a2,107d4 <kputs+0x2c>
		__asm__ __volatile__ (
   107e0:	640007b7          	lui	a5,0x64000
   107e4:	00a00713          	li	a4,10
   107e8:	40e7a6af          	amoor.w	a3,a4,(a5)
	} while (r < 0);
   107ec:	02069613          	slli	a2,a3,0x20
   107f0:	fe064ce3          	bltz	a2,107e8 <kputs+0x40>
void kputs(const char *s)
{
	_kputs(s);
	kputc('\r');
	kputc('\n');
}
   107f4:	00008067          	ret

00000000000107f8 <kprintf>:

void kprintf(const char *fmt, ...)
{
   107f8:	fb010113          	addi	sp,sp,-80

	va_start(vl, fmt);
	is_format = false;
	is_long = false;
	is_char = false;
	while ((c = *fmt++) != '\0') {
   107fc:	00054303          	lbu	t1,0(a0)
{
   10800:	02f13c23          	sd	a5,56(sp)
	va_start(vl, fmt);
   10804:	01810793          	addi	a5,sp,24
{
   10808:	00b13c23          	sd	a1,24(sp)
   1080c:	02c13023          	sd	a2,32(sp)
   10810:	02d13423          	sd	a3,40(sp)
   10814:	02e13823          	sd	a4,48(sp)
   10818:	05013023          	sd	a6,64(sp)
   1081c:	05113423          	sd	a7,72(sp)
	va_start(vl, fmt);
   10820:	00f13423          	sd	a5,8(sp)
	while ((c = *fmt++) != '\0') {
   10824:	08030263          	beqz	t1,108a8 <kprintf+0xb0>
   10828:	00150513          	addi	a0,a0,1
   1082c:	00000f13          	li	t5,0
   10830:	00000613          	li	a2,0
   10834:	00000693          	li	a3,0
				break;
			}
			is_format = false;
			is_long = false;
			is_char = false;
		} else if (c == '%') {
   10838:	02500e93          	li	t4,37
		__asm__ __volatile__ (
   1083c:	640005b7          	lui	a1,0x64000
			switch (c) {
   10840:	01500e13          	li	t3,21
   10844:	00000897          	auipc	a7,0x0
   10848:	23488893          	addi	a7,a7,564 # 10a78 <spinner+0xb0>
		if (is_format) {
   1084c:	0e068663          	beqz	a3,10938 <kprintf+0x140>
			switch (c) {
   10850:	f9d3031b          	addiw	t1,t1,-99
   10854:	0ff37313          	zext.b	t1,t1
   10858:	026e6c63          	bltu	t3,t1,10890 <kprintf+0x98>
   1085c:	00231313          	slli	t1,t1,0x2
   10860:	01130333          	add	t1,t1,a7
   10864:	00032783          	lw	a5,0(t1)
   10868:	011787b3          	add	a5,a5,a7
   1086c:	00078067          	jr	a5 # 64000000 <dtb+0x63fef530>
				kputc(va_arg(vl, int));
   10870:	00813683          	ld	a3,8(sp)
   10874:	640007b7          	lui	a5,0x64000
   10878:	0006c703          	lbu	a4,0(a3)
   1087c:	00868693          	addi	a3,a3,8
   10880:	00d13423          	sd	a3,8(sp)
   10884:	40e7a6af          	amoor.w	a3,a4,(a5)
	} while (r < 0);
   10888:	02069613          	slli	a2,a3,0x20
   1088c:	fe064ce3          	bltz	a2,10884 <kprintf+0x8c>
			is_char = false;
   10890:	00000f13          	li	t5,0
			is_long = false;
   10894:	00000613          	li	a2,0
			is_format = false;
   10898:	00000693          	li	a3,0
	while ((c = *fmt++) != '\0') {
   1089c:	00054303          	lbu	t1,0(a0)
   108a0:	00150513          	addi	a0,a0,1
   108a4:	fa0314e3          	bnez	t1,1084c <kprintf+0x54>
		} else {
			kputc(c);
		}
	}
	va_end(vl);
}
   108a8:	05010113          	addi	sp,sp,80
   108ac:	00008067          	ret
					n = va_arg(vl, unsigned long);
   108b0:	00813783          	ld	a5,8(sp)
   108b4:	00878713          	addi	a4,a5,8 # 64000008 <dtb+0x63fef538>
				if (is_long) {
   108b8:	0a060463          	beqz	a2,10960 <kprintf+0x168>
					n = va_arg(vl, unsigned long);
   108bc:	0007bf83          	ld	t6,0(a5)
   108c0:	00e13423          	sd	a4,8(sp)
					i = (sizeof(unsigned long) << 3) - 4;
   108c4:	03c00813          	li	a6,60
					kputc(d < 10 ? '0' + d : 'a' + d - 10);
   108c8:	00900f13          	li	t5,9
		__asm__ __volatile__ (
   108cc:	640007b7          	lui	a5,0x64000
				for (; i >= 0; i -= 4) {
   108d0:	ffc00313          	li	t1,-4
					d = (n >> i) & 0xF;
   108d4:	010fd733          	srl	a4,t6,a6
					kputc(d < 10 ? '0' + d : 'a' + d - 10);
   108d8:	00f77613          	andi	a2,a4,15
   108dc:	05760713          	addi	a4,a2,87
   108e0:	00cf6463          	bltu	t5,a2,108e8 <kprintf+0xf0>
   108e4:	03060713          	addi	a4,a2,48
   108e8:	40e7a6af          	amoor.w	a3,a4,(a5)
	} while (r < 0);
   108ec:	02069613          	slli	a2,a3,0x20
   108f0:	fe064ce3          	bltz	a2,108e8 <kprintf+0xf0>
				for (; i >= 0; i -= 4) {
   108f4:	ffc80813          	addi	a6,a6,-4
   108f8:	fc681ee3          	bne	a6,t1,108d4 <kprintf+0xdc>
   108fc:	f95ff06f          	j	10890 <kprintf+0x98>
				_kputs(va_arg(vl, const char *));
   10900:	00813783          	ld	a5,8(sp)
   10904:	0007b803          	ld	a6,0(a5) # 64000000 <dtb+0x63fef530>
   10908:	00878793          	addi	a5,a5,8
   1090c:	00f13423          	sd	a5,8(sp)
	for (; (c = *s) != '\0'; s++)
   10910:	00084703          	lbu	a4,0(a6)
   10914:	f6070ee3          	beqz	a4,10890 <kprintf+0x98>
		__asm__ __volatile__ (
   10918:	640007b7          	lui	a5,0x64000
   1091c:	40e7a6af          	amoor.w	a3,a4,(a5)
	} while (r < 0);
   10920:	02069613          	slli	a2,a3,0x20
   10924:	fe064ce3          	bltz	a2,1091c <kprintf+0x124>
   10928:	00184703          	lbu	a4,1(a6)
   1092c:	00180813          	addi	a6,a6,1
   10930:	fe0716e3          	bnez	a4,1091c <kprintf+0x124>
   10934:	f5dff06f          	j	10890 <kprintf+0x98>
		} else if (c == '%') {
   10938:	01d31663          	bne	t1,t4,10944 <kprintf+0x14c>
			is_format = true;
   1093c:	00100693          	li	a3,1
   10940:	f5dff06f          	j	1089c <kprintf+0xa4>
		__asm__ __volatile__ (
   10944:	4065a7af          	amoor.w	a5,t1,(a1)
	} while (r < 0);
   10948:	02079713          	slli	a4,a5,0x20
   1094c:	f40758e3          	bgez	a4,1089c <kprintf+0xa4>
		__asm__ __volatile__ (
   10950:	4065a7af          	amoor.w	a5,t1,(a1)
	} while (r < 0);
   10954:	02079713          	slli	a4,a5,0x20
   10958:	fe0746e3          	bltz	a4,10944 <kprintf+0x14c>
   1095c:	f41ff06f          	j	1089c <kprintf+0xa4>
					n = va_arg(vl, unsigned int);
   10960:	00e13423          	sd	a4,8(sp)
   10964:	0007ef83          	lwu	t6,0(a5) # 64000000 <dtb+0x63fef530>
					i = is_char ? 4 : (sizeof(unsigned int) << 3) - 4;
   10968:	01c00813          	li	a6,28
   1096c:	f40f0ee3          	beqz	t5,108c8 <kprintf+0xd0>
   10970:	00400813          	li	a6,4
   10974:	f55ff06f          	j	108c8 <kprintf+0xd0>
			switch (c) {
   10978:	00068f13          	mv	t5,a3
   1097c:	f21ff06f          	j	1089c <kprintf+0xa4>
				is_long = true;
   10980:	00068613          	mv	a2,a3
   10984:	f19ff06f          	j	1089c <kprintf+0xa4>
	...

Disassembly of section .srodata:

00000000000109c8 <spinner>:
static const char spinner[] = { '-', '/', '|', '\\' };
   109c8:	2f2d                	.insn	2, 0x2f2d
   109ca:	5c7c                	.insn	2, 0x5c7c
