
/home/stanley/chipyard_1.13.0/chipyard/fpga/src/main/resources/genesys2/sdboot//build/sdboot.elf:     file format elf64-littleriscv


Disassembly of section .text:

0000000000010000 <_prog_start>:

  .section .text.init
  .option norvc
  .globl _prog_start
_prog_start:
  smp_pause(s1, s2)
   10000:	00800913          	li	s2,8
   10004:	30491073          	csrw	mie,s2
   10008:	00000493          	li	s1,0
   1000c:	f1402973          	csrr	s2,mhartid
   10010:	03249663          	bne	s1,s2,1003c <_prog_start+0x3c>
  li sp, (PAYLOAD_DEST + (MEMORY_MEM_SIZE >> 1)) //PAYLOAD_DEST=MEMORY_MEM_ADDR
   10014:	0050011b          	addiw	sp,zero,5
   10018:	01d11113          	slli	sp,sp,0x1d
  call main
   1001c:	1ac000ef          	jal	101c8 <main>
  smp_resume(s1, s2)
   10020:	020004b7          	lui	s1,0x2000
   10024:	00100913          	li	s2,1
   10028:	0124a023          	sw	s2,0(s1) # 2000000 <dtb+0x1fef410>
   1002c:	00448493          	addi	s1,s1,4
   10030:	02000937          	lui	s2,0x2000
   10034:	0809091b          	addiw	s2,s2,128 # 2000080 <dtb+0x1fef490>
   10038:	ff24c6e3          	blt	s1,s2,10024 <_prog_start+0x24>
   1003c:	10500073          	wfi
   10040:	34402973          	csrr	s2,mip
   10044:	00897913          	andi	s2,s2,8
   10048:	fe090ae3          	beqz	s2,1003c <_prog_start+0x3c>
   1004c:	020004b7          	lui	s1,0x2000
   10050:	f1402973          	csrr	s2,mhartid
   10054:	00291913          	slli	s2,s2,0x2
   10058:	00990933          	add	s2,s2,s1
   1005c:	00092023          	sw	zero,0(s2)
   10060:	0004a903          	lw	s2,0(s1) # 2000000 <dtb+0x1fef410>
   10064:	fe091ee3          	bnez	s2,10060 <_prog_start+0x60>
   10068:	00448493          	addi	s1,s1,4
   1006c:	02000937          	lui	s2,0x2000
   10070:	0809091b          	addiw	s2,s2,128 # 2000080 <dtb+0x1fef490>
   10074:	ff24c6e3          	blt	s1,s2,10060 <_prog_start+0x60>
  csrr a0, mhartid // hartid for next level bootloader
   10078:	f1402573          	csrr	a0,mhartid
  la a1, dtb // dtb address for next level bootloader
   1007c:	00001597          	auipc	a1,0x1
   10080:	b7458593          	addi	a1,a1,-1164 # 10bf0 <dtb>
  li s1, PAYLOAD_DEST
   10084:	0010049b          	addiw	s1,zero,1
   10088:	01f49493          	slli	s1,s1,0x1f
  jr s1
   1008c:	00048067          	jr	s1

0000000000010090 <sd_cmd>:
{
	return spi_xfer(0xFF);
}

static uint8_t sd_cmd(uint8_t cmd, uint32_t arg, uint8_t crc)
{
   10090:	ff010113          	addi	sp,sp,-16
   10094:	00113423          	sd	ra,8(sp)
   10098:	00813023          	sd	s0,0(sp)
	unsigned long n;
	uint8_t r;

	REG32(spi, SPI_REG_CSMODE) = SPI_CSMODE_HOLD;
   1009c:	64001737          	lui	a4,0x64001
   100a0:	00200693          	li	a3,2
   100a4:	00d72c23          	sw	a3,24(a4) # 64001018 <dtb+0x63ff0428>
	REG32(spi, SPI_REG_TXFIFO) = d;
   100a8:	640017b7          	lui	a5,0x64001
		r = REG32(spi, SPI_REG_RXFIFO);
   100ac:	64001737          	lui	a4,0x64001
	REG32(spi, SPI_REG_TXFIFO) = d;
   100b0:	0ff00693          	li	a3,255
   100b4:	04d7a423          	sw	a3,72(a5) # 64001048 <dtb+0x63ff0458>
		r = REG32(spi, SPI_REG_RXFIFO);
   100b8:	04c70713          	addi	a4,a4,76 # 6400104c <dtb+0x63ff045c>
   100bc:	00072783          	lw	a5,0(a4)
	} while (r < 0);
   100c0:	fe07cee3          	bltz	a5,100bc <sd_cmd+0x2c>
	REG32(spi, SPI_REG_TXFIFO) = d;
   100c4:	640017b7          	lui	a5,0x64001
   100c8:	0005051b          	sext.w	a0,a0
		r = REG32(spi, SPI_REG_RXFIFO);
   100cc:	64001737          	lui	a4,0x64001
   100d0:	04c70713          	addi	a4,a4,76 # 6400104c <dtb+0x63ff045c>
	REG32(spi, SPI_REG_TXFIFO) = d;
   100d4:	04a7a423          	sw	a0,72(a5) # 64001048 <dtb+0x63ff0458>
		r = REG32(spi, SPI_REG_RXFIFO);
   100d8:	00072783          	lw	a5,0(a4)
	} while (r < 0);
   100dc:	fe07cee3          	bltz	a5,100d8 <sd_cmd+0x48>
	REG32(spi, SPI_REG_TXFIFO) = d;
   100e0:	640017b7          	lui	a5,0x64001
	sd_dummy();
	spi_xfer(cmd);
	spi_xfer(arg >> 24);
   100e4:	0185d69b          	srliw	a3,a1,0x18
		r = REG32(spi, SPI_REG_RXFIFO);
   100e8:	64001737          	lui	a4,0x64001
   100ec:	04c70713          	addi	a4,a4,76 # 6400104c <dtb+0x63ff045c>
	REG32(spi, SPI_REG_TXFIFO) = d;
   100f0:	04d7a423          	sw	a3,72(a5) # 64001048 <dtb+0x63ff0458>
		r = REG32(spi, SPI_REG_RXFIFO);
   100f4:	00072783          	lw	a5,0(a4)
	} while (r < 0);
   100f8:	fe07cee3          	bltz	a5,100f4 <sd_cmd+0x64>
	REG32(spi, SPI_REG_TXFIFO) = d;
   100fc:	640017b7          	lui	a5,0x64001
		r = REG32(spi, SPI_REG_RXFIFO);
   10100:	64001737          	lui	a4,0x64001
   10104:	04c70713          	addi	a4,a4,76 # 6400104c <dtb+0x63ff045c>
	REG32(spi, SPI_REG_TXFIFO) = d;
   10108:	0407a423          	sw	zero,72(a5) # 64001048 <dtb+0x63ff0458>
		r = REG32(spi, SPI_REG_RXFIFO);
   1010c:	00072783          	lw	a5,0(a4)
	} while (r < 0);
   10110:	fe07cee3          	bltz	a5,1010c <sd_cmd+0x7c>
	spi_xfer(arg >> 16);
	spi_xfer(arg >> 8);
   10114:	0085d69b          	srliw	a3,a1,0x8
	REG32(spi, SPI_REG_TXFIFO) = d;
   10118:	640017b7          	lui	a5,0x64001
   1011c:	0ff6f693          	zext.b	a3,a3
		r = REG32(spi, SPI_REG_RXFIFO);
   10120:	64001737          	lui	a4,0x64001
   10124:	04c70713          	addi	a4,a4,76 # 6400104c <dtb+0x63ff045c>
	REG32(spi, SPI_REG_TXFIFO) = d;
   10128:	04d7a423          	sw	a3,72(a5) # 64001048 <dtb+0x63ff0458>
		r = REG32(spi, SPI_REG_RXFIFO);
   1012c:	00072783          	lw	a5,0(a4)
	} while (r < 0);
   10130:	fe07cee3          	bltz	a5,1012c <sd_cmd+0x9c>
	REG32(spi, SPI_REG_TXFIFO) = d;
   10134:	640017b7          	lui	a5,0x64001
   10138:	0ff5f593          	zext.b	a1,a1
		r = REG32(spi, SPI_REG_RXFIFO);
   1013c:	64001737          	lui	a4,0x64001
   10140:	04c70713          	addi	a4,a4,76 # 6400104c <dtb+0x63ff045c>
	REG32(spi, SPI_REG_TXFIFO) = d;
   10144:	04b7a423          	sw	a1,72(a5) # 64001048 <dtb+0x63ff0458>
		r = REG32(spi, SPI_REG_RXFIFO);
   10148:	00072783          	lw	a5,0(a4)
	} while (r < 0);
   1014c:	fe07cee3          	bltz	a5,10148 <sd_cmd+0xb8>
	REG32(spi, SPI_REG_TXFIFO) = d;
   10150:	640017b7          	lui	a5,0x64001
   10154:	0006069b          	sext.w	a3,a2
		r = REG32(spi, SPI_REG_RXFIFO);
   10158:	64001737          	lui	a4,0x64001
   1015c:	04c70713          	addi	a4,a4,76 # 6400104c <dtb+0x63ff045c>
	REG32(spi, SPI_REG_TXFIFO) = d;
   10160:	04d7a423          	sw	a3,72(a5) # 64001048 <dtb+0x63ff0458>
		r = REG32(spi, SPI_REG_RXFIFO);
   10164:	00072783          	lw	a5,0(a4)
	} while (r < 0);
   10168:	fe07cee3          	bltz	a5,10164 <sd_cmd+0xd4>
	REG32(spi, SPI_REG_TXFIFO) = d;
   1016c:	64001637          	lui	a2,0x64001
		r = REG32(spi, SPI_REG_RXFIFO);
   10170:	64001737          	lui	a4,0x64001
   10174:	3e800693          	li	a3,1000
	REG32(spi, SPI_REG_TXFIFO) = d;
   10178:	04860613          	addi	a2,a2,72 # 64001048 <dtb+0x63ff0458>
   1017c:	0ff00593          	li	a1,255
		r = REG32(spi, SPI_REG_RXFIFO);
   10180:	04c70713          	addi	a4,a4,76 # 6400104c <dtb+0x63ff045c>
	REG32(spi, SPI_REG_TXFIFO) = d;
   10184:	00b62023          	sw	a1,0(a2)
		r = REG32(spi, SPI_REG_RXFIFO);
   10188:	00072783          	lw	a5,0(a4)
   1018c:	0007841b          	sext.w	s0,a5
	} while (r < 0);
   10190:	fe07cce3          	bltz	a5,10188 <sd_cmd+0xf8>
	spi_xfer(crc);

	n = 1000;
	do {
		r = sd_dummy();
		if (!(r & 0x80)) {
   10194:	0184179b          	slliw	a5,s0,0x18
   10198:	4187d79b          	sraiw	a5,a5,0x18
   1019c:	0007dc63          	bgez	a5,101b4 <sd_cmd+0x124>
//			dprintf("sd:cmd: %hx\r\n", r);
			goto done;
		}
	} while (--n > 0);
   101a0:	fff68693          	addi	a3,a3,-1
   101a4:	fe0690e3          	bnez	a3,10184 <sd_cmd+0xf4>
	kputln("sd_cmd: timeout");
   101a8:	00001517          	auipc	a0,0x1
   101ac:	95850513          	addi	a0,a0,-1704 # 10b00 <spinner+0x8>
   101b0:	664000ef          	jal	10814 <kputln>
done:
	return r;
}
   101b4:	00813083          	ld	ra,8(sp)
   101b8:	0ff47513          	zext.b	a0,s0
   101bc:	00013403          	ld	s0,0(sp)
   101c0:	01010113          	addi	sp,sp,16
   101c4:	00008067          	ret

00000000000101c8 <main>:
	kputln("\b ");
	return rc;
}

int main(void)
{
   101c8:	fa010113          	addi	sp,sp,-96
   101cc:	04113c23          	sd	ra,88(sp)
   101d0:	04813823          	sd	s0,80(sp)
	uart_init();
   101d4:	0c1000ef          	jal	10a94 <uart_init>
	kputln("test kputln SD BOOT");	
   101d8:	00001517          	auipc	a0,0x1
   101dc:	93850513          	addi	a0,a0,-1736 # 10b10 <spinner+0x18>
   101e0:	634000ef          	jal	10814 <kputln>
	REG32(spi, SPI_REG_SCKDIV) = (F_CLK / 300000UL);
   101e4:	64001737          	lui	a4,0x64001
   101e8:	0a600693          	li	a3,166
   101ec:	00d72023          	sw	a3,0(a4) # 64001000 <dtb+0x63ff0410>
	REG32(spi, SPI_REG_CSMODE) = SPI_CSMODE_OFF;
   101f0:	640017b7          	lui	a5,0x64001
   101f4:	00300693          	li	a3,3
	REG32(spi, SPI_REG_TXFIFO) = d;
   101f8:	64001637          	lui	a2,0x64001
	REG32(spi, SPI_REG_CSMODE) = SPI_CSMODE_OFF;
   101fc:	00d7ac23          	sw	a3,24(a5) # 64001018 <dtb+0x63ff0428>
	REG32(spi, SPI_REG_TXFIFO) = d;
   10200:	04860613          	addi	a2,a2,72 # 64001048 <dtb+0x63ff0458>
	REG32(spi, SPI_REG_CSMODE) = SPI_CSMODE_OFF;
   10204:	00a00693          	li	a3,10
	REG32(spi, SPI_REG_TXFIFO) = d;
   10208:	0ff00593          	li	a1,255
		r = REG32(spi, SPI_REG_RXFIFO);
   1020c:	04c70713          	addi	a4,a4,76
	REG32(spi, SPI_REG_TXFIFO) = d;
   10210:	00b62023          	sw	a1,0(a2)
		r = REG32(spi, SPI_REG_RXFIFO);
   10214:	00072783          	lw	a5,0(a4)
	} while (r < 0);
   10218:	fe07cee3          	bltz	a5,10214 <main+0x4c>
	for (i = 10; i > 0; i--) {
   1021c:	fff68693          	addi	a3,a3,-1
   10220:	fe0698e3          	bnez	a3,10210 <main+0x48>
	REG32(spi, SPI_REG_CSMODE) = SPI_CSMODE_AUTO;
   10224:	640017b7          	lui	a5,0x64001
   10228:	0007ac23          	sw	zero,24(a5) # 64001018 <dtb+0x63ff0428>
	dputs("CMD0");
   1022c:	00001517          	auipc	a0,0x1
   10230:	8fc50513          	addi	a0,a0,-1796 # 10b28 <spinner+0x30>
   10234:	5a8000ef          	jal	107dc <kputs>
	rc = (sd_cmd(0x40, 0, 0x95) != 0x01);
   10238:	09500613          	li	a2,149
   1023c:	00000593          	li	a1,0
   10240:	04000513          	li	a0,64
   10244:	e4dff0ef          	jal	10090 <sd_cmd>
	REG32(spi, SPI_REG_TXFIFO) = d;
   10248:	640017b7          	lui	a5,0x64001
		r = REG32(spi, SPI_REG_RXFIFO);
   1024c:	64001737          	lui	a4,0x64001
	REG32(spi, SPI_REG_TXFIFO) = d;
   10250:	0ff00693          	li	a3,255
   10254:	04d7a423          	sw	a3,72(a5) # 64001048 <dtb+0x63ff0458>
		r = REG32(spi, SPI_REG_RXFIFO);
   10258:	04c70713          	addi	a4,a4,76 # 6400104c <dtb+0x63ff045c>
   1025c:	00072783          	lw	a5,0(a4)
	} while (r < 0);
   10260:	fe07cee3          	bltz	a5,1025c <main+0x94>
	REG32(spi, SPI_REG_CSMODE) = SPI_CSMODE_AUTO;
   10264:	640017b7          	lui	a5,0x64001
	sd_poweron();
	if (sd_cmd0() ||
   10268:	00100713          	li	a4,1
	REG32(spi, SPI_REG_CSMODE) = SPI_CSMODE_AUTO;
   1026c:	0007ac23          	sw	zero,24(a5) # 64001018 <dtb+0x63ff0428>
	if (sd_cmd0() ||
   10270:	0ee51e63          	bne	a0,a4,1036c <main+0x1a4>
	dputs("CMD8");
   10274:	00001517          	auipc	a0,0x1
   10278:	8bc50513          	addi	a0,a0,-1860 # 10b30 <spinner+0x38>
   1027c:	04913423          	sd	s1,72(sp)
   10280:	55c000ef          	jal	107dc <kputs>
	rc = (sd_cmd(0x48, 0x000001AA, 0x87) != 0x01);
   10284:	1aa00593          	li	a1,426
   10288:	08700613          	li	a2,135
   1028c:	04800513          	li	a0,72
   10290:	e01ff0ef          	jal	10090 <sd_cmd>
   10294:	0005069b          	sext.w	a3,a0
   10298:	fff68693          	addi	a3,a3,-1
	REG32(spi, SPI_REG_TXFIFO) = d;
   1029c:	640017b7          	lui	a5,0x64001
		r = REG32(spi, SPI_REG_RXFIFO);
   102a0:	64001737          	lui	a4,0x64001
	rc = (sd_cmd(0x48, 0x000001AA, 0x87) != 0x01);
   102a4:	00d035b3          	snez	a1,a3
	REG32(spi, SPI_REG_TXFIFO) = d;
   102a8:	0ff00693          	li	a3,255
   102ac:	04d7a423          	sw	a3,72(a5) # 64001048 <dtb+0x63ff0458>
		r = REG32(spi, SPI_REG_RXFIFO);
   102b0:	04c70713          	addi	a4,a4,76 # 6400104c <dtb+0x63ff045c>
   102b4:	00072783          	lw	a5,0(a4)
	} while (r < 0);
   102b8:	fe07cee3          	bltz	a5,102b4 <main+0xec>
	REG32(spi, SPI_REG_TXFIFO) = d;
   102bc:	640017b7          	lui	a5,0x64001
		r = REG32(spi, SPI_REG_RXFIFO);
   102c0:	64001737          	lui	a4,0x64001
	REG32(spi, SPI_REG_TXFIFO) = d;
   102c4:	0ff00693          	li	a3,255
   102c8:	04d7a423          	sw	a3,72(a5) # 64001048 <dtb+0x63ff0458>
		r = REG32(spi, SPI_REG_RXFIFO);
   102cc:	04c70713          	addi	a4,a4,76 # 6400104c <dtb+0x63ff045c>
   102d0:	00072783          	lw	a5,0(a4)
	} while (r < 0);
   102d4:	fe07cee3          	bltz	a5,102d0 <main+0x108>
	REG32(spi, SPI_REG_TXFIFO) = d;
   102d8:	640017b7          	lui	a5,0x64001
		r = REG32(spi, SPI_REG_RXFIFO);
   102dc:	640016b7          	lui	a3,0x64001
	REG32(spi, SPI_REG_TXFIFO) = d;
   102e0:	0ff00713          	li	a4,255
   102e4:	04e7a423          	sw	a4,72(a5) # 64001048 <dtb+0x63ff0458>
		r = REG32(spi, SPI_REG_RXFIFO);
   102e8:	04c68693          	addi	a3,a3,76 # 6400104c <dtb+0x63ff045c>
   102ec:	0006a783          	lw	a5,0(a3)
   102f0:	0007871b          	sext.w	a4,a5
	} while (r < 0);
   102f4:	fe07cce3          	bltz	a5,102ec <main+0x124>
	rc |= ((sd_dummy() & 0xF) != 0x1); /* voltage */
   102f8:	00f77713          	andi	a4,a4,15
   102fc:	fff70793          	addi	a5,a4,-1
	REG32(spi, SPI_REG_TXFIFO) = d;
   10300:	640016b7          	lui	a3,0x64001
		r = REG32(spi, SPI_REG_RXFIFO);
   10304:	64001637          	lui	a2,0x64001
	rc |= ((sd_dummy() & 0xF) != 0x1); /* voltage */
   10308:	00f03733          	snez	a4,a5
	REG32(spi, SPI_REG_TXFIFO) = d;
   1030c:	0ff00793          	li	a5,255
   10310:	04f6a423          	sw	a5,72(a3) # 64001048 <dtb+0x63ff0458>
		r = REG32(spi, SPI_REG_RXFIFO);
   10314:	04c60613          	addi	a2,a2,76 # 6400104c <dtb+0x63ff045c>
   10318:	00062783          	lw	a5,0(a2)
   1031c:	0007869b          	sext.w	a3,a5
	} while (r < 0);
   10320:	fe07cce3          	bltz	a5,10318 <main+0x150>
	rc |= (sd_dummy() != 0xAA); /* check pattern */
   10324:	0ff6f793          	zext.b	a5,a3
   10328:	f5678793          	addi	a5,a5,-170
   1032c:	00f037b3          	snez	a5,a5
   10330:	00f767b3          	or	a5,a4,a5
   10334:	00f5e6b3          	or	a3,a1,a5
	REG32(spi, SPI_REG_TXFIFO) = d;
   10338:	64001637          	lui	a2,0x64001
		r = REG32(spi, SPI_REG_RXFIFO);
   1033c:	64001737          	lui	a4,0x64001
	REG32(spi, SPI_REG_TXFIFO) = d;
   10340:	0ff00793          	li	a5,255
   10344:	0ff6f693          	zext.b	a3,a3
   10348:	04f62423          	sw	a5,72(a2) # 64001048 <dtb+0x63ff0458>
		r = REG32(spi, SPI_REG_RXFIFO);
   1034c:	04c70713          	addi	a4,a4,76 # 6400104c <dtb+0x63ff045c>
   10350:	00072783          	lw	a5,0(a4)
	} while (r < 0);
   10354:	fe07cee3          	bltz	a5,10350 <main+0x188>
	REG32(spi, SPI_REG_CSMODE) = SPI_CSMODE_AUTO;
   10358:	640014b7          	lui	s1,0x64001
   1035c:	0004ac23          	sw	zero,24(s1) # 64001018 <dtb+0x63ff0428>
   10360:	01848493          	addi	s1,s1,24
	if (sd_cmd0() ||
   10364:	02068663          	beqz	a3,10390 <main+0x1c8>
   10368:	04813483          	ld	s1,72(sp)
	    sd_cmd8() ||
	    sd_acmd41() ||
	    sd_cmd58() ||
	    sd_cmd16() ||
	    copy()) {
		kputln("ERROR");
   1036c:	00001517          	auipc	a0,0x1
   10370:	81c50513          	addi	a0,a0,-2020 # 10b88 <spinner+0x90>
   10374:	4a0000ef          	jal	10814 <kputln>
		return 1;
   10378:	00100413          	li	s0,1

	kputln("BOOT");
	__asm__ __volatile__ ("fence.i" : : : "memory");

	return 0;
   1037c:	05813083          	ld	ra,88(sp)
   10380:	00040513          	mv	a0,s0
   10384:	05013403          	ld	s0,80(sp)
   10388:	06010113          	addi	sp,sp,96
   1038c:	00008067          	ret
   10390:	05213023          	sd	s2,64(sp)
	dputs("ACMD41");
   10394:	00000517          	auipc	a0,0x0
   10398:	7a450513          	addi	a0,a0,1956 # 10b38 <spinner+0x40>
	REG32(spi, SPI_REG_TXFIFO) = d;
   1039c:	64001937          	lui	s2,0x64001
		r = REG32(spi, SPI_REG_RXFIFO);
   103a0:	64001437          	lui	s0,0x64001
   103a4:	03313c23          	sd	s3,56(sp)
   103a8:	03413823          	sd	s4,48(sp)
	REG32(spi, SPI_REG_TXFIFO) = d;
   103ac:	04890913          	addi	s2,s2,72 # 64001048 <dtb+0x63ff0458>
	dputs("ACMD41");
   103b0:	42c000ef          	jal	107dc <kputs>
	REG32(spi, SPI_REG_TXFIFO) = d;
   103b4:	0ff00a13          	li	s4,255
		r = REG32(spi, SPI_REG_RXFIFO);
   103b8:	04c40413          	addi	s0,s0,76 # 6400104c <dtb+0x63ff045c>
	} while (r == 0x01);
   103bc:	00100993          	li	s3,1
	sd_cmd(0x77, 0, 0x65);
   103c0:	06500613          	li	a2,101
   103c4:	00000593          	li	a1,0
   103c8:	07700513          	li	a0,119
   103cc:	cc5ff0ef          	jal	10090 <sd_cmd>
	REG32(spi, SPI_REG_TXFIFO) = d;
   103d0:	01492023          	sw	s4,0(s2)
		r = REG32(spi, SPI_REG_RXFIFO);
   103d4:	00042783          	lw	a5,0(s0)
	} while (r < 0);
   103d8:	fe07cee3          	bltz	a5,103d4 <main+0x20c>
	REG32(spi, SPI_REG_CSMODE) = SPI_CSMODE_AUTO;
   103dc:	0004a023          	sw	zero,0(s1)
		r = sd_cmd(0x69, 0x40000000, 0x77); /* HCS = 1 */
   103e0:	07700613          	li	a2,119
   103e4:	400005b7          	lui	a1,0x40000
   103e8:	06900513          	li	a0,105
   103ec:	ca5ff0ef          	jal	10090 <sd_cmd>
	} while (r == 0x01);
   103f0:	fd3508e3          	beq	a0,s3,103c0 <main+0x1f8>
	    sd_cmd8() ||
   103f4:	00050c63          	beqz	a0,1040c <main+0x244>
   103f8:	04813483          	ld	s1,72(sp)
   103fc:	04013903          	ld	s2,64(sp)
   10400:	03813983          	ld	s3,56(sp)
   10404:	03013a03          	ld	s4,48(sp)
   10408:	f65ff06f          	j	1036c <main+0x1a4>
	dputs("CMD58");
   1040c:	00000517          	auipc	a0,0x0
   10410:	73450513          	addi	a0,a0,1844 # 10b40 <spinner+0x48>
   10414:	3c8000ef          	jal	107dc <kputs>
	rc = (sd_cmd(0x7A, 0, 0xFD) != 0x00);
   10418:	0fd00613          	li	a2,253
   1041c:	00000593          	li	a1,0
   10420:	07a00513          	li	a0,122
   10424:	c6dff0ef          	jal	10090 <sd_cmd>
	REG32(spi, SPI_REG_TXFIFO) = d;
   10428:	640017b7          	lui	a5,0x64001
		r = REG32(spi, SPI_REG_RXFIFO);
   1042c:	640016b7          	lui	a3,0x64001
	REG32(spi, SPI_REG_TXFIFO) = d;
   10430:	0ff00713          	li	a4,255
	rc = (sd_cmd(0x7A, 0, 0xFD) != 0x00);
   10434:	00a03633          	snez	a2,a0
	REG32(spi, SPI_REG_TXFIFO) = d;
   10438:	04e7a423          	sw	a4,72(a5) # 64001048 <dtb+0x63ff0458>
		r = REG32(spi, SPI_REG_RXFIFO);
   1043c:	04c68693          	addi	a3,a3,76 # 6400104c <dtb+0x63ff045c>
   10440:	0006a783          	lw	a5,0(a3)
   10444:	0007871b          	sext.w	a4,a5
	} while (r < 0);
   10448:	fe07cce3          	bltz	a5,10440 <main+0x278>
	rc |= ((sd_dummy() & 0x80) != 0x80); /* Power up status */
   1044c:	4077579b          	sraiw	a5,a4,0x7
   10450:	0017c793          	xori	a5,a5,1
   10454:	0017f793          	andi	a5,a5,1
	REG32(spi, SPI_REG_TXFIFO) = d;
   10458:	640015b7          	lui	a1,0x64001
		r = REG32(spi, SPI_REG_RXFIFO);
   1045c:	64001737          	lui	a4,0x64001
   10460:	00f666b3          	or	a3,a2,a5
	REG32(spi, SPI_REG_TXFIFO) = d;
   10464:	0ff00793          	li	a5,255
   10468:	04f5a423          	sw	a5,72(a1) # 64001048 <dtb+0x63ff0458>
		r = REG32(spi, SPI_REG_RXFIFO);
   1046c:	04c70713          	addi	a4,a4,76 # 6400104c <dtb+0x63ff045c>
   10470:	00072783          	lw	a5,0(a4)
	} while (r < 0);
   10474:	fe07cee3          	bltz	a5,10470 <main+0x2a8>
	REG32(spi, SPI_REG_TXFIFO) = d;
   10478:	640017b7          	lui	a5,0x64001
		r = REG32(spi, SPI_REG_RXFIFO);
   1047c:	64001737          	lui	a4,0x64001
	REG32(spi, SPI_REG_TXFIFO) = d;
   10480:	0ff00613          	li	a2,255
   10484:	04c7a423          	sw	a2,72(a5) # 64001048 <dtb+0x63ff0458>
		r = REG32(spi, SPI_REG_RXFIFO);
   10488:	04c70713          	addi	a4,a4,76 # 6400104c <dtb+0x63ff045c>
   1048c:	00072783          	lw	a5,0(a4)
	} while (r < 0);
   10490:	fe07cee3          	bltz	a5,1048c <main+0x2c4>
	REG32(spi, SPI_REG_TXFIFO) = d;
   10494:	640017b7          	lui	a5,0x64001
		r = REG32(spi, SPI_REG_RXFIFO);
   10498:	64001737          	lui	a4,0x64001
	REG32(spi, SPI_REG_TXFIFO) = d;
   1049c:	0ff00613          	li	a2,255
   104a0:	04c7a423          	sw	a2,72(a5) # 64001048 <dtb+0x63ff0458>
		r = REG32(spi, SPI_REG_RXFIFO);
   104a4:	04c70713          	addi	a4,a4,76 # 6400104c <dtb+0x63ff045c>
   104a8:	00072783          	lw	a5,0(a4)
	} while (r < 0);
   104ac:	fe07cee3          	bltz	a5,104a8 <main+0x2e0>
	REG32(spi, SPI_REG_TXFIFO) = d;
   104b0:	640017b7          	lui	a5,0x64001
		r = REG32(spi, SPI_REG_RXFIFO);
   104b4:	64001737          	lui	a4,0x64001
	REG32(spi, SPI_REG_TXFIFO) = d;
   104b8:	0ff00613          	li	a2,255
   104bc:	04c7a423          	sw	a2,72(a5) # 64001048 <dtb+0x63ff0458>
		r = REG32(spi, SPI_REG_RXFIFO);
   104c0:	04c70713          	addi	a4,a4,76 # 6400104c <dtb+0x63ff045c>
   104c4:	00072783          	lw	a5,0(a4)
	} while (r < 0);
   104c8:	fe07cee3          	bltz	a5,104c4 <main+0x2fc>
	REG32(spi, SPI_REG_CSMODE) = SPI_CSMODE_AUTO;
   104cc:	640017b7          	lui	a5,0x64001
   104d0:	0007ac23          	sw	zero,24(a5) # 64001018 <dtb+0x63ff0428>
	    sd_acmd41() ||
   104d4:	f20692e3          	bnez	a3,103f8 <main+0x230>
	dputs("CMD16");
   104d8:	00000517          	auipc	a0,0x0
   104dc:	67050513          	addi	a0,a0,1648 # 10b48 <spinner+0x50>
   104e0:	2fc000ef          	jal	107dc <kputs>
	rc = (sd_cmd(0x50, 0x200, 0x15) != 0x00);
   104e4:	01500613          	li	a2,21
   104e8:	20000593          	li	a1,512
   104ec:	05000513          	li	a0,80
   104f0:	ba1ff0ef          	jal	10090 <sd_cmd>
	REG32(spi, SPI_REG_TXFIFO) = d;
   104f4:	640016b7          	lui	a3,0x64001
		r = REG32(spi, SPI_REG_RXFIFO);
   104f8:	640017b7          	lui	a5,0x64001
	REG32(spi, SPI_REG_TXFIFO) = d;
   104fc:	0ff00613          	li	a2,255
	rc = (sd_cmd(0x50, 0x200, 0x15) != 0x00);
   10500:	00050713          	mv	a4,a0
	REG32(spi, SPI_REG_TXFIFO) = d;
   10504:	04c6a423          	sw	a2,72(a3) # 64001048 <dtb+0x63ff0458>
		r = REG32(spi, SPI_REG_RXFIFO);
   10508:	04c78793          	addi	a5,a5,76 # 6400104c <dtb+0x63ff045c>
   1050c:	0007a683          	lw	a3,0(a5)
	} while (r < 0);
   10510:	fe06cee3          	bltz	a3,1050c <main+0x344>
	REG32(spi, SPI_REG_CSMODE) = SPI_CSMODE_AUTO;
   10514:	640017b7          	lui	a5,0x64001
   10518:	0007ac23          	sw	zero,24(a5) # 64001018 <dtb+0x63ff0428>
	    sd_cmd58() ||
   1051c:	ec071ee3          	bnez	a4,103f8 <main+0x230>
	dputs("CMD18");
   10520:	00000517          	auipc	a0,0x0
   10524:	63050513          	addi	a0,a0,1584 # 10b50 <spinner+0x58>
   10528:	2b4000ef          	jal	107dc <kputs>
	kprintf("LOADING  ");
   1052c:	00000517          	auipc	a0,0x0
   10530:	62c50513          	addi	a0,a0,1580 # 10b58 <spinner+0x60>
   10534:	324000ef          	jal	10858 <kprintf>
	REG32(spi, SPI_REG_SCKDIV) = (F_CLK / 5000000UL);
   10538:	640017b7          	lui	a5,0x64001
   1053c:	00a00713          	li	a4,10
   10540:	00e7a023          	sw	a4,0(a5) # 64001000 <dtb+0x63ff0410>
	if (sd_cmd(0x52, BBL_PARTITION_START_SECTOR, 0xE1) != 0x00) {
   10544:	0e100613          	li	a2,225
   10548:	02200593          	li	a1,34
   1054c:	05200513          	li	a0,82
   10550:	b41ff0ef          	jal	10090 <sd_cmd>
   10554:	24051863          	bnez	a0,107a4 <main+0x5dc>
   10558:	01713c23          	sd	s7,24(sp)
   1055c:	01a13023          	sd	s10,0(sp)
	REG32(spi, SPI_REG_TXFIFO) = d;
   10560:	64001937          	lui	s2,0x64001
	volatile uint8_t *p = (void *)(PAYLOAD_DEST);
   10564:	00100d13          	li	s10,1
		r = REG32(spi, SPI_REG_RXFIFO);
   10568:	640014b7          	lui	s1,0x64001
	crc ^= (crc & 0xff) << 5;
   1056c:	00002a37          	lui	s4,0x2
	} while (--i > 0);
   10570:	08100b93          	li	s7,129
   10574:	03513423          	sd	s5,40(sp)
   10578:	03613023          	sd	s6,32(sp)
   1057c:	01813823          	sd	s8,16(sp)
   10580:	01913423          	sd	s9,8(sp)
	long i = PAYLOAD_SIZE;
   10584:	00008b37          	lui	s6,0x8
	volatile uint8_t *p = (void *)(PAYLOAD_DEST);
   10588:	01fd1d13          	slli	s10,s10,0x1f
	REG32(spi, SPI_REG_TXFIFO) = d;
   1058c:	04890913          	addi	s2,s2,72 # 64001048 <dtb+0x63ff0458>
   10590:	0ff00c13          	li	s8,255
   10594:	0ff00993          	li	s3,255
		r = REG32(spi, SPI_REG_RXFIFO);
   10598:	04c48493          	addi	s1,s1,76 # 6400104c <dtb+0x63ff045c>
		while (sd_dummy() != 0xFE);
   1059c:	0fe00a93          	li	s5,254
	crc ^= (crc & 0xff) << 5;
   105a0:	fe0a0a13          	addi	s4,s4,-32 # 1fe0 <_prog_start-0xe020>
			kputln(spinner[SPIN_INDEX(i)]);
   105a4:	00000417          	auipc	s0,0x0
   105a8:	55440413          	addi	s0,s0,1364 # 10af8 <spinner>
	} while (--i > 0);
   105ac:	018b9b93          	slli	s7,s7,0x18
	REG32(spi, SPI_REG_TXFIFO) = d;
   105b0:	01392023          	sw	s3,0(s2)
		r = REG32(spi, SPI_REG_RXFIFO);
   105b4:	0004a783          	lw	a5,0(s1)
   105b8:	0007871b          	sext.w	a4,a5
	} while (r < 0);
   105bc:	fe07cce3          	bltz	a5,105b4 <main+0x3ec>
		while (sd_dummy() != 0xFE);
   105c0:	0ff77713          	zext.b	a4,a4
   105c4:	000d0613          	mv	a2,s10
		crc = 0;
   105c8:	00000693          	li	a3,0
   105cc:	200d0593          	addi	a1,s10,512
		while (sd_dummy() != 0xFE);
   105d0:	ff5710e3          	bne	a4,s5,105b0 <main+0x3e8>
	REG32(spi, SPI_REG_TXFIFO) = d;
   105d4:	01392023          	sw	s3,0(s2)
		r = REG32(spi, SPI_REG_RXFIFO);
   105d8:	0004a783          	lw	a5,0(s1)
   105dc:	0007871b          	sext.w	a4,a5
	} while (r < 0);
   105e0:	fe07cce3          	bltz	a5,105d8 <main+0x410>
	crc = (uint8_t)(crc >> 8) | (crc << 8);
   105e4:	0086979b          	slliw	a5,a3,0x8
   105e8:	0086d69b          	srliw	a3,a3,0x8
   105ec:	00d7e7b3          	or	a5,a5,a3
   105f0:	03079793          	slli	a5,a5,0x30
	return r;
   105f4:	0ff77713          	zext.b	a4,a4
	crc = (uint8_t)(crc >> 8) | (crc << 8);
   105f8:	0307d793          	srli	a5,a5,0x30
	crc ^= data;
   105fc:	00f747b3          	xor	a5,a4,a5
	crc ^= (uint8_t)(crc >> 4) & 0xf;
   10600:	0047d69b          	srliw	a3,a5,0x4
   10604:	00f6f693          	andi	a3,a3,15
   10608:	00d7c7b3          	xor	a5,a5,a3
   1060c:	0107979b          	slliw	a5,a5,0x10
   10610:	4107d79b          	sraiw	a5,a5,0x10
	crc ^= crc << 12;
   10614:	00c7969b          	slliw	a3,a5,0xc
   10618:	00d7c7b3          	xor	a5,a5,a3
   1061c:	0107979b          	slliw	a5,a5,0x10
   10620:	4107d79b          	sraiw	a5,a5,0x10
	crc ^= (crc & 0xff) << 5;
   10624:	0057969b          	slliw	a3,a5,0x5
   10628:	00da76b3          	and	a3,s4,a3
   1062c:	00d7c7b3          	xor	a5,a5,a3
   10630:	03079693          	slli	a3,a5,0x30
			*p++ = x;
   10634:	00160c93          	addi	s9,a2,1
   10638:	00e60023          	sb	a4,0(a2)
	crc ^= (crc & 0xff) << 5;
   1063c:	0306d693          	srli	a3,a3,0x30
		} while (--n > 0);
   10640:	00bc8663          	beq	s9,a1,1064c <main+0x484>
			*p++ = x;
   10644:	000c8613          	mv	a2,s9
   10648:	f8dff06f          	j	105d4 <main+0x40c>
   1064c:	00058d13          	mv	s10,a1
	REG32(spi, SPI_REG_TXFIFO) = d;
   10650:	01892023          	sw	s8,0(s2)
		r = REG32(spi, SPI_REG_RXFIFO);
   10654:	0004a783          	lw	a5,0(s1)
   10658:	0007871b          	sext.w	a4,a5
	} while (r < 0);
   1065c:	fe07cce3          	bltz	a5,10654 <main+0x48c>
		crc_exp = ((uint16_t)sd_dummy() << 8);
   10660:	0ff77713          	zext.b	a4,a4
   10664:	0087171b          	slliw	a4,a4,0x8
   10668:	03071713          	slli	a4,a4,0x30
   1066c:	03075713          	srli	a4,a4,0x30
	REG32(spi, SPI_REG_TXFIFO) = d;
   10670:	01892023          	sw	s8,0(s2)
		r = REG32(spi, SPI_REG_RXFIFO);
   10674:	0004a783          	lw	a5,0(s1)
   10678:	0007861b          	sext.w	a2,a5
	} while (r < 0);
   1067c:	fe07cce3          	bltz	a5,10674 <main+0x4ac>
		crc_exp |= sd_dummy();
   10680:	0ff67793          	zext.b	a5,a2
		if (crc != crc_exp) {
   10684:	00e7e7b3          	or	a5,a5,a4
   10688:	0cd79e63          	bne	a5,a3,10764 <main+0x59c>
		if (SPIN_UPDATE(i)) {
   1068c:	03fb7793          	andi	a5,s6,63
   10690:	0a078a63          	beqz	a5,10744 <main+0x57c>
	} while (--i > 0);
   10694:	fffb0b13          	addi	s6,s6,-1 # 7fff <_prog_start-0x8001>
   10698:	f17c9ce3          	bne	s9,s7,105b0 <main+0x3e8>
	int rc = 0;
   1069c:	00000413          	li	s0,0
	REG32(spi, SPI_REG_TXFIFO) = d;
   106a0:	64001737          	lui	a4,0x64001
		r = REG32(spi, SPI_REG_RXFIFO);
   106a4:	640017b7          	lui	a5,0x64001
	REG32(spi, SPI_REG_TXFIFO) = d;
   106a8:	0ff00693          	li	a3,255
   106ac:	04d72423          	sw	a3,72(a4) # 64001048 <dtb+0x63ff0458>
		r = REG32(spi, SPI_REG_RXFIFO);
   106b0:	04c78793          	addi	a5,a5,76 # 6400104c <dtb+0x63ff045c>
   106b4:	0007a703          	lw	a4,0(a5)
	} while (r < 0);
   106b8:	fe074ee3          	bltz	a4,106b4 <main+0x4ec>
	REG32(spi, SPI_REG_CSMODE) = SPI_CSMODE_AUTO;
   106bc:	640017b7          	lui	a5,0x64001
   106c0:	0007ac23          	sw	zero,24(a5) # 64001018 <dtb+0x63ff0428>
	sd_cmd(0x4C, 0, 0x01);
   106c4:	00100613          	li	a2,1
   106c8:	00000593          	li	a1,0
   106cc:	04c00513          	li	a0,76
   106d0:	9c1ff0ef          	jal	10090 <sd_cmd>
	REG32(spi, SPI_REG_TXFIFO) = d;
   106d4:	64001737          	lui	a4,0x64001
		r = REG32(spi, SPI_REG_RXFIFO);
   106d8:	640017b7          	lui	a5,0x64001
	REG32(spi, SPI_REG_TXFIFO) = d;
   106dc:	0ff00693          	li	a3,255
   106e0:	04d72423          	sw	a3,72(a4) # 64001048 <dtb+0x63ff0458>
		r = REG32(spi, SPI_REG_RXFIFO);
   106e4:	04c78793          	addi	a5,a5,76 # 6400104c <dtb+0x63ff045c>
   106e8:	0007a703          	lw	a4,0(a5)
	} while (r < 0);
   106ec:	fe074ee3          	bltz	a4,106e8 <main+0x520>
	REG32(spi, SPI_REG_CSMODE) = SPI_CSMODE_AUTO;
   106f0:	640017b7          	lui	a5,0x64001
	kputln("\b ");
   106f4:	00000517          	auipc	a0,0x0
   106f8:	48c50513          	addi	a0,a0,1164 # 10b80 <spinner+0x88>
	REG32(spi, SPI_REG_CSMODE) = SPI_CSMODE_AUTO;
   106fc:	0007ac23          	sw	zero,24(a5) # 64001018 <dtb+0x63ff0428>
	kputln("\b ");
   10700:	114000ef          	jal	10814 <kputln>
	    sd_cmd16() ||
   10704:	06041a63          	bnez	s0,10778 <main+0x5b0>
	kputln("BOOT");
   10708:	00000517          	auipc	a0,0x0
   1070c:	48850513          	addi	a0,a0,1160 # 10b90 <spinner+0x98>
   10710:	104000ef          	jal	10814 <kputln>
	__asm__ __volatile__ ("fence.i" : : : "memory");
   10714:	0000100f          	fence.i
   10718:	04813483          	ld	s1,72(sp)
   1071c:	04013903          	ld	s2,64(sp)
   10720:	03813983          	ld	s3,56(sp)
   10724:	03013a03          	ld	s4,48(sp)
   10728:	02813a83          	ld	s5,40(sp)
   1072c:	02013b03          	ld	s6,32(sp)
   10730:	01813b83          	ld	s7,24(sp)
   10734:	01013c03          	ld	s8,16(sp)
   10738:	00813c83          	ld	s9,8(sp)
   1073c:	00013d03          	ld	s10,0(sp)
	return 0;
   10740:	c3dff06f          	j	1037c <main+0x1b4>
			kputln('\b');
   10744:	00800513          	li	a0,8
   10748:	0cc000ef          	jal	10814 <kputln>
			kputln(spinner[SPIN_INDEX(i)]);
   1074c:	406b5793          	srai	a5,s6,0x6
   10750:	0037f793          	andi	a5,a5,3
   10754:	00f407b3          	add	a5,s0,a5
   10758:	0007c503          	lbu	a0,0(a5)
   1075c:	0b8000ef          	jal	10814 <kputln>
   10760:	f35ff06f          	j	10694 <main+0x4cc>
			kputln("\b- CRC mismatch ");
   10764:	00000517          	auipc	a0,0x0
   10768:	40450513          	addi	a0,a0,1028 # 10b68 <spinner+0x70>
   1076c:	0a8000ef          	jal	10814 <kputln>
			rc = 1;
   10770:	00100413          	li	s0,1
			break;
   10774:	f2dff06f          	j	106a0 <main+0x4d8>
   10778:	04813483          	ld	s1,72(sp)
   1077c:	04013903          	ld	s2,64(sp)
   10780:	03813983          	ld	s3,56(sp)
   10784:	03013a03          	ld	s4,48(sp)
   10788:	02813a83          	ld	s5,40(sp)
   1078c:	02013b03          	ld	s6,32(sp)
   10790:	01813b83          	ld	s7,24(sp)
   10794:	01013c03          	ld	s8,16(sp)
   10798:	00813c83          	ld	s9,8(sp)
   1079c:	00013d03          	ld	s10,0(sp)
   107a0:	bcdff06f          	j	1036c <main+0x1a4>
	REG32(spi, SPI_REG_TXFIFO) = d;
   107a4:	64001737          	lui	a4,0x64001
		r = REG32(spi, SPI_REG_RXFIFO);
   107a8:	640017b7          	lui	a5,0x64001
	REG32(spi, SPI_REG_TXFIFO) = d;
   107ac:	0ff00693          	li	a3,255
   107b0:	04d72423          	sw	a3,72(a4) # 64001048 <dtb+0x63ff0458>
		r = REG32(spi, SPI_REG_RXFIFO);
   107b4:	04c78793          	addi	a5,a5,76 # 6400104c <dtb+0x63ff045c>
   107b8:	0007a703          	lw	a4,0(a5)
	} while (r < 0);
   107bc:	fe074ee3          	bltz	a4,107b8 <main+0x5f0>
	REG32(spi, SPI_REG_CSMODE) = SPI_CSMODE_AUTO;
   107c0:	640017b7          	lui	a5,0x64001
   107c4:	04813483          	ld	s1,72(sp)
   107c8:	04013903          	ld	s2,64(sp)
   107cc:	03813983          	ld	s3,56(sp)
   107d0:	03013a03          	ld	s4,48(sp)
   107d4:	0007ac23          	sw	zero,24(a5) # 64001018 <dtb+0x63ff0428>
		return 1;
   107d8:	b95ff06f          	j	1036c <main+0x1a4>

00000000000107dc <kputs>:
	for (; (c = *s) != '\0'; s++)
		kputc(c);
}

void kputs(const char *s)
{
   107dc:	ff010113          	addi	sp,sp,-16
   107e0:	00813023          	sd	s0,0(sp)
   107e4:	00113423          	sd	ra,8(sp)
   107e8:	00050413          	mv	s0,a0
	for (; (c = *s) != '\0'; s++)
   107ec:	00054503          	lbu	a0,0(a0)
   107f0:	00050a63          	beqz	a0,10804 <kputs+0x28>

//static volatile uint32_t * const uart = (void *)(UART_CTRL_ADDR);

static inline void kputc(char c)
{
	uart_send(c);
   107f4:	2b0000ef          	jal	10aa4 <uart_send>
   107f8:	00144503          	lbu	a0,1(s0)
   107fc:	00140413          	addi	s0,s0,1
   10800:	fe051ae3          	bnez	a0,107f4 <kputs+0x18>
	_kputs(s);
}
   10804:	00813083          	ld	ra,8(sp)
   10808:	00013403          	ld	s0,0(sp)
   1080c:	01010113          	addi	sp,sp,16
   10810:	00008067          	ret

0000000000010814 <kputln>:

void kputln(const char *s)
{
   10814:	ff010113          	addi	sp,sp,-16
   10818:	00813023          	sd	s0,0(sp)
   1081c:	00113423          	sd	ra,8(sp)
   10820:	00050413          	mv	s0,a0
	for (; (c = *s) != '\0'; s++)
   10824:	00054503          	lbu	a0,0(a0)
   10828:	00050a63          	beqz	a0,1083c <kputln+0x28>
   1082c:	278000ef          	jal	10aa4 <uart_send>
   10830:	00144503          	lbu	a0,1(s0)
   10834:	00140413          	addi	s0,s0,1
   10838:	fe051ae3          	bnez	a0,1082c <kputln+0x18>
   1083c:	00d00513          	li	a0,13
   10840:	264000ef          	jal	10aa4 <uart_send>
	_kputs(s);
	kputc('\r');
	kputc('\n');
}
   10844:	00013403          	ld	s0,0(sp)
   10848:	00813083          	ld	ra,8(sp)
   1084c:	00a00513          	li	a0,10
   10850:	01010113          	addi	sp,sp,16
   10854:	2500006f          	j	10aa4 <uart_send>

0000000000010858 <kprintf>:

void kprintf(const char *fmt, ...)
{
   10858:	f6010113          	addi	sp,sp,-160
   1085c:	04913423          	sd	s1,72(sp)
   10860:	04113c23          	sd	ra,88(sp)
   10864:	00050493          	mv	s1,a0

	va_start(vl, fmt);
	is_format = false;
	is_long = false;
	is_char = false;
	while ((c = *fmt++) != '\0') {
   10868:	00054503          	lbu	a0,0(a0)
{
   1086c:	08f13423          	sd	a5,136(sp)
	va_start(vl, fmt);
   10870:	06810793          	addi	a5,sp,104
{
   10874:	06b13423          	sd	a1,104(sp)
   10878:	06c13823          	sd	a2,112(sp)
   1087c:	06d13c23          	sd	a3,120(sp)
   10880:	08e13023          	sd	a4,128(sp)
   10884:	09013823          	sd	a6,144(sp)
   10888:	09113c23          	sd	a7,152(sp)
	va_start(vl, fmt);
   1088c:	00f13423          	sd	a5,8(sp)
	while ((c = *fmt++) != '\0') {
   10890:	0a050263          	beqz	a0,10934 <kprintf+0xdc>
   10894:	04813823          	sd	s0,80(sp)
   10898:	05213023          	sd	s2,64(sp)
   1089c:	03313c23          	sd	s3,56(sp)
   108a0:	03413823          	sd	s4,48(sp)
   108a4:	03513423          	sd	s5,40(sp)
   108a8:	03613023          	sd	s6,32(sp)
   108ac:	00148493          	addi	s1,s1,1
   108b0:	00000a93          	li	s5,0
   108b4:	00000b13          	li	s6,0
   108b8:	00000413          	li	s0,0
   108bc:	02500a13          	li	s4,37
   108c0:	01500993          	li	s3,21
   108c4:	00000917          	auipc	s2,0x0
   108c8:	2d490913          	addi	s2,s2,724 # 10b98 <spinner+0xa0>
		if (is_format) {
   108cc:	14040e63          	beqz	s0,10a28 <kprintf+0x1d0>
			switch (c) {
   108d0:	f9d5051b          	addiw	a0,a0,-99
   108d4:	0ff57513          	zext.b	a0,a0
   108d8:	02a9e663          	bltu	s3,a0,10904 <kprintf+0xac>
   108dc:	00251513          	slli	a0,a0,0x2
   108e0:	01250533          	add	a0,a0,s2
   108e4:	00052783          	lw	a5,0(a0)
   108e8:	012787b3          	add	a5,a5,s2
   108ec:	00078067          	jr	a5
			}
			case 's':
				_kputs(va_arg(vl, const char *));
				break;
			case 'c':
				kputc(va_arg(vl, int));
   108f0:	00813783          	ld	a5,8(sp)
   108f4:	0007c503          	lbu	a0,0(a5)
   108f8:	00878793          	addi	a5,a5,8
   108fc:	00f13423          	sd	a5,8(sp)
   10900:	1a4000ef          	jal	10aa4 <uart_send>
				break;
			}
			is_format = false;
			is_long = false;
			is_char = false;
   10904:	00000a93          	li	s5,0
			is_long = false;
   10908:	00000b13          	li	s6,0
			is_format = false;
   1090c:	00000413          	li	s0,0
	while ((c = *fmt++) != '\0') {
   10910:	0004c503          	lbu	a0,0(s1)
   10914:	00148493          	addi	s1,s1,1
   10918:	fa051ae3          	bnez	a0,108cc <kprintf+0x74>
   1091c:	05013403          	ld	s0,80(sp)
   10920:	04013903          	ld	s2,64(sp)
   10924:	03813983          	ld	s3,56(sp)
   10928:	03013a03          	ld	s4,48(sp)
   1092c:	02813a83          	ld	s5,40(sp)
   10930:	02013b03          	ld	s6,32(sp)
		} else {
			kputc(c);
		}
	}
	va_end(vl);
}
   10934:	05813083          	ld	ra,88(sp)
   10938:	04813483          	ld	s1,72(sp)
   1093c:	0a010113          	addi	sp,sp,160
   10940:	00008067          	ret
					n = va_arg(vl, unsigned long);
   10944:	00813783          	ld	a5,8(sp)
   10948:	01713c23          	sd	s7,24(sp)
   1094c:	00878713          	addi	a4,a5,8
				if (is_long) {
   10950:	100b0463          	beqz	s6,10a58 <kprintf+0x200>
					n = va_arg(vl, unsigned long);
   10954:	0007bb03          	ld	s6,0(a5)
   10958:	00e13423          	sd	a4,8(sp)
					i = (sizeof(unsigned long) << 3) - 4;
   1095c:	03c00413          	li	s0,60
					kputc(d < 10 ? '0' + d : 'a' + d - 10);
   10960:	00900b93          	li	s7,9
				for (; i >= 0; i -= 4) {
   10964:	ffc00a93          	li	s5,-4
					d = (n >> i) & 0xF;
   10968:	008b57b3          	srl	a5,s6,s0
					kputc(d < 10 ? '0' + d : 'a' + d - 10);
   1096c:	00f7f713          	andi	a4,a5,15
   10970:	05770513          	addi	a0,a4,87
   10974:	00ebe463          	bltu	s7,a4,1097c <kprintf+0x124>
   10978:	03070513          	addi	a0,a4,48
				for (; i >= 0; i -= 4) {
   1097c:	ffc40413          	addi	s0,s0,-4
   10980:	124000ef          	jal	10aa4 <uart_send>
   10984:	ff5412e3          	bne	s0,s5,10968 <kprintf+0x110>
   10988:	01813b83          	ld	s7,24(sp)
   1098c:	f79ff06f          	j	10904 <kprintf+0xac>
				_kputs(va_arg(vl, const char *));
   10990:	00813783          	ld	a5,8(sp)
   10994:	0007b403          	ld	s0,0(a5)
   10998:	00878793          	addi	a5,a5,8
   1099c:	00f13423          	sd	a5,8(sp)
	for (; (c = *s) != '\0'; s++)
   109a0:	00044503          	lbu	a0,0(s0)
   109a4:	f60500e3          	beqz	a0,10904 <kprintf+0xac>
   109a8:	0fc000ef          	jal	10aa4 <uart_send>
   109ac:	00144503          	lbu	a0,1(s0)
   109b0:	00140413          	addi	s0,s0,1
   109b4:	fe051ae3          	bnez	a0,109a8 <kprintf+0x150>
   109b8:	f4dff06f          	j	10904 <kprintf+0xac>
					n = va_arg(vl, unsigned long);
   109bc:	00813783          	ld	a5,8(sp)
				long d = is_long ? va_arg(vl, long) : va_arg(vl, int);
   109c0:	00878713          	addi	a4,a5,8
   109c4:	060b0c63          	beqz	s6,10a3c <kprintf+0x1e4>
   109c8:	0007ba83          	ld	s5,0(a5)
   109cc:	00e13423          	sd	a4,8(sp)
				if (d < 0)   { d = -d; kputc('-'); }
   109d0:	060acc63          	bltz	s5,10a48 <kprintf+0x1f0>
                for (long dd = d; dd /= 10; tenpow *= 10) { }
   109d4:	00a00793          	li	a5,10
   109d8:	02fac733          	div	a4,s5,a5
   109dc:	0a070263          	beqz	a4,10a80 <kprintf+0x228>
				long tenpow=1;
   109e0:	00100413          	li	s0,1
                for (long dd = d; dd /= 10; tenpow *= 10) { }
   109e4:	00a00613          	li	a2,10
   109e8:	02c74733          	div	a4,a4,a2
   109ec:	00241793          	slli	a5,s0,0x2
   109f0:	008787b3          	add	a5,a5,s0
   109f4:	00040693          	mv	a3,s0
   109f8:	00179413          	slli	s0,a5,0x1
   109fc:	fe0716e3          	bnez	a4,109e8 <kprintf+0x190>
				for (; tenpow ; tenpow /= 10) { kputc('0' + ((d/tenpow) % 10)); }
   10a00:	f00682e3          	beqz	a3,10904 <kprintf+0xac>
   10a04:	00a00b13          	li	s6,10
   10a08:	028ac533          	div	a0,s5,s0
   10a0c:	03656533          	rem	a0,a0,s6
   10a10:	0305051b          	addiw	a0,a0,48
   10a14:	0ff57513          	zext.b	a0,a0
   10a18:	08c000ef          	jal	10aa4 <uart_send>
   10a1c:	03644433          	div	s0,s0,s6
   10a20:	fe0414e3          	bnez	s0,10a08 <kprintf+0x1b0>
   10a24:	ee1ff06f          	j	10904 <kprintf+0xac>
		} else if (c == '%') {
   10a28:	01450663          	beq	a0,s4,10a34 <kprintf+0x1dc>
   10a2c:	078000ef          	jal	10aa4 <uart_send>
#else
	while ((int32_t)(*tx) < 0);
	*tx = c;
#endif
*/
}
   10a30:	ee1ff06f          	j	10910 <kprintf+0xb8>
			is_format = true;
   10a34:	00100413          	li	s0,1
   10a38:	ed9ff06f          	j	10910 <kprintf+0xb8>
				long d = is_long ? va_arg(vl, long) : va_arg(vl, int);
   10a3c:	0007aa83          	lw	s5,0(a5)
   10a40:	00e13423          	sd	a4,8(sp)
				if (d < 0)   { d = -d; kputc('-'); }
   10a44:	f80ad8e3          	bgez	s5,109d4 <kprintf+0x17c>
	uart_send(c);
   10a48:	02d00513          	li	a0,45
   10a4c:	41500ab3          	neg	s5,s5
   10a50:	054000ef          	jal	10aa4 <uart_send>
}
   10a54:	f81ff06f          	j	109d4 <kprintf+0x17c>
					n = va_arg(vl, unsigned int);
   10a58:	00e13423          	sd	a4,8(sp)
   10a5c:	0007eb03          	lwu	s6,0(a5)
					i = is_char ? 4 : (sizeof(unsigned int) << 3) - 4;
   10a60:	01c00413          	li	s0,28
   10a64:	ee0a8ee3          	beqz	s5,10960 <kprintf+0x108>
   10a68:	00400413          	li	s0,4
   10a6c:	ef5ff06f          	j	10960 <kprintf+0x108>
			switch (c) {
   10a70:	00040a93          	mv	s5,s0
   10a74:	e9dff06f          	j	10910 <kprintf+0xb8>
				is_long = true;
   10a78:	00040b13          	mv	s6,s0
   10a7c:	e95ff06f          	j	10910 <kprintf+0xb8>
				for (; tenpow ; tenpow /= 10) { kputc('0' + ((d/tenpow) % 10)); }
   10a80:	02fae533          	rem	a0,s5,a5
   10a84:	0305051b          	addiw	a0,a0,48
	uart_send(c);
   10a88:	0ff57513          	zext.b	a0,a0
   10a8c:	018000ef          	jal	10aa4 <uart_send>
   10a90:	e75ff06f          	j	10904 <kprintf+0xac>

0000000000010a94 <uart_init>:
#include "uart.h"

static volatile uint32_t *uart_base_ptr = (uint32_t *)(UART_CTRL_ADDR); // 0x64000000

void uart_init(void) {
  *(uart_base_ptr +(UART_REG_TXCTRL>>2)) = UART_TXEN;
   10a94:	640007b7          	lui	a5,0x64000
   10a98:	00100713          	li	a4,1
   10a9c:	00e7a423          	sw	a4,8(a5) # 64000008 <dtb+0x63fef418>
}
   10aa0:	00008067          	ret

0000000000010aa4 <uart_send>:
inline void uart_send(uint8_t data) {
	volatile uint32_t *tx = uart_base_ptr +(UART_REG_TXFIFO>>2);
#ifdef __riscv_atomic
	int32_t r;
	do {
		__asm__ __volatile__ (
   10aa4:	640007b7          	lui	a5,0x64000
   10aa8:	40a7a72f          	amoor.w	a4,a0,(a5)
			"amoor.w %0, %2, %1\n"
			: "=r" (r), "+A" (*tx)
			: "r" (data));
	} while (r < 0);
   10aac:	02071693          	slli	a3,a4,0x20
   10ab0:	fe06cce3          	bltz	a3,10aa8 <uart_send+0x4>
#else
	while ((int32_t)(*tx) < 0);
	*tx = c;
#endif
}
   10ab4:	00008067          	ret
	...

Disassembly of section .srodata:

0000000000010af8 <spinner>:
static const char spinner[] = { '-', '/', '|', '\\' };
   10af8:	2f2d                	.insn	2, 0x2f2d
   10afa:	5c7c                	.insn	2, 0x5c7c
